(lp1
S'0004_464793955.jpg'
p2
aS'0003_53362410.jpg'
p3
aS'0007_940780300.jpg'
p4
aS'0019_423862738.jpg'
p5
aS'0028_387314722.jpg'
p6
aS'0089_377877012.jpg'
p7
aS'0213_2417364557.jpg'
p8
aS'0289_484976997.jpg'
p9
aS'0291_122167448.jpg'
p10
aS'0334_785347157.jpg'
p11
aS'0343_1212317787.jpg'
p12
aS'0351_143178369.jpg'
p13
aS'0361_14802906.jpg'
p14
aS'0390_47714047.jpg'
p15
aS'0439_142015555.jpg'
p16
aS'0455_538829362.jpg'
p17
aS'0527_203896163.jpg'
p18
aS'0532_74257593.jpg'
p19
aS'0535_120707061.jpg'
p20
aS'0552_153557776.jpg'
p21
aS'0594_84401373.jpg'
p22
aS'0059_2434669693.jpg'
p23
aS'0092_2290060819.jpg'
p24
aS'0097_2398565185.jpg'
p25
aS'0315_2333912584.jpg'
p26
aS'0397_2456399056.jpg'
p27
aS'0494_2118590998.jpg'
p28
aS'0510_2478560287.jpg'
p29
aS'0039_874114329.jpg'
p30
aS'0040_520287572.jpg'
p31
aS'0049_2650509991.jpg'
p32
aS'0052_2327250885.jpg'
p33
aS'0057_337933791.jpg'
p34
aS'0262_499393762.jpg'
p35
aS'0275_2433657494.jpg'
p36
aS'0279_2592579578.jpg'
p37
aS'0374_2433657314.jpg'
p38
aS'0402_462937706.jpg'
p39
aS'0422_101662295.jpg'
p40
aS'0030_2315104664.jpg'
p41
aS'0340_2304543984.jpg'
p42
aS'0446_296519825.jpg'
p43
aS'0455_76593141.jpg'
p44
aS'0473_184442009.jpg'
p45
aS'0003_22755481.jpg'
p46
aS'0018_368716755.jpg'
p47
aS'0002_1021429225.jpg'
p48
aS'0005_2348707486.jpg'
p49
aS'0039_540975459.jpg'
p50
aS'0224_79875673.jpg'
p51
aS'0254_121730285.jpg'
p52
aS'0257_132190915.jpg'
p53
aS'0259_407236030.jpg'
p54
aS'0465_2485404514.jpg'
p55
aS'0480_378633384.jpg'
p56
aS'0515_315140744.jpg'
p57
aS'0520_89897758.jpg'
p58
aS'0532_323272913.jpg'
p59
aS'0003_488456796.jpg'
p60
aS'0005_84655830.jpg'
p61
aS'0022_2355216100.jpg'
p62
aS'0023_193888626.jpg'
p63
aS'0037_106123689.jpg'
p64
aS'0039_321763088.jpg'
p65
aS'0051_209779652.jpg'
p66
aS'0052_199519492.jpg'
p67
aS'0066_1891878972.jpg'
p68
aS'0067_2352548585.jpg'
p69
aS'0090_2218350394.jpg'
p70
aS'0204_255130101.jpg'
p71
aS'0207_429034624.jpg'
p72
aS'0220_364899463.jpg'
p73
aS'0334_513437006.jpg'
p74
aS'0338_2272158218.jpg'
p75
aS'0404_92212466.jpg'
p76
aS'0462_176221473.jpg'
p77
aS'0001_389068663.jpg'
p78
aS'0002_447459573.jpg'
p79
aS'0003_389068668.jpg'
p80
aS'0005_389068665.jpg'
p81
aS'0006_389068675.jpg'
p82
aS'0007_389068672.jpg'
p83
aS'0328_241052832.jpg'
p84
aS'0006_8486340.jpg'
p85
aS'0013_272421059.jpg'
p86
aS'0041_378174827.jpg'
p87
aS'0048_827411295.jpg'
p88
aS'0051_1384283201.jpg'
p89
aS'0060_2415232057.jpg'
p90
aS'0063_75362215.jpg'
p91
aS'0076_61124980.jpg'
p92
aS'0207_390392716.jpg'
p93
aS'0211_828246144.jpg'
p94
aS'0399_802243220.jpg'
p95
aS'0454_176397575.jpg'
p96
aS'0457_26354641.jpg'
p97
aS'0482_2248552401.jpg'
p98
aS'0028_1070815604.jpg'
p99
aS'0060_2175139584.jpg'
p100
aS'0075_1736659214.jpg'
p101
aS'0253_2235421258.jpg'
p102
aS'0338_1774674163.jpg'
p103
aS'0351_2332302179.jpg'
p104
aS'0358_18062168.jpg'
p105
aS'0535_2358011266.jpg'
p106
aS'0035_1295687064.jpg'
p107
aS'0051_536758690.jpg'
p108
aS'0091_1027301852.jpg'
p109
aS'0263_223681889.jpg'
p110
aS'0265_699634902.jpg'
p111
aS'0416_2494152511.jpg'
p112
aS'0445_150095023.jpg'
p113
aS'0011_1167417963.jpg'
p114
aS'0012_200360332.jpg'
p115
aS'0017_254861851.jpg'
p116
aS'0022_498609706.jpg'
p117
aS'0029_377351015.jpg'
p118
aS'0031_2587518051.jpg'
p119
aS'0032_116187127.jpg'
p120
aS'0034_2312181054.jpg'
p121
aS'0036_470765168.jpg'
p122
aS'0037_2225233125.jpg'
p123
aS'0042_2312682727.jpg'
p124
aS'0051_2576534437.jpg'
p125
aS'0057_2424912155.jpg'
p126
aS'0086_1022293088.jpg'
p127
aS'0212_122035405.jpg'
p128
aS'0217_147442069.jpg'
p129
aS'0227_2309839631.jpg'
p130
aS'0234_2533027163.jpg'
p131
aS'0237_2517978771.jpg'
p132
aS'0246_2191976116.jpg'
p133
aS'0247_110669557.jpg'
p134
aS'0257_2328560703.jpg'
p135
aS'0259_2545280578.jpg'
p136
aS'0264_2420382871.jpg'
p137
aS'0266_2339698473.jpg'
p138
aS'0281_942235738.jpg'
p139
aS'0284_154282966.jpg'
p140
aS'0326_503071378.jpg'
p141
aS'0337_280182977.jpg'
p142
aS'0349_42635752.jpg'
p143
aS'0356_2570597102.jpg'
p144
aS'0359_2158122694.jpg'
p145
aS'0391_2229221974.jpg'
p146
aS'0414_189862263.jpg'
p147
aS'0417_2157319163.jpg'
p148
aS'0426_2593982690.jpg'
p149
aS'0431_1028287206.jpg'
p150
aS'0436_87338113.jpg'
p151
aS'0441_2465695848.jpg'
p152
aS'0487_2406777741.jpg'
p153
aS'0403_158783218.jpg'
p154
aS'0479_2090299397.jpg'
p155
aS'0009_1382400520.jpg'
p156
aS'0022_380004531.jpg'
p157
aS'0050_943084476.jpg'
p158
aS'0067_2286202620.jpg'
p159
aS'0089_363385992.jpg'
p160
aS'0216_104004679.jpg'
p161
aS'0228_1486979496.jpg'
p162
aS'0268_101928459.jpg'
p163
aS'0286_131634530.jpg'
p164
aS'0339_2053280825.jpg'
p165
aS'0341_859276648.jpg'
p166
aS'0381_140045368.jpg'
p167
aS'0403_68136740.jpg'
p168
aS'0408_223904975.jpg'
p169
aS'0438_251006135.jpg'
p170
aS'0441_963509305.jpg'
p171
aS'0445_399852251.jpg'
p172
aS'0511_1328807936.jpg'
p173
aS'0525_345172106.jpg'
p174
aS'0531_1453118029.jpg'
p175
aS'0550_61767551.jpg'
p176
aS'0565_471169878.jpg'
p177
aS'0591_215516482.jpg'
p178
aS'0106_2551436758.jpg'
p179
aS'0267_385977471.jpg'
p180
aS'0327_258121786.jpg'
p181
aS'0399_2270938323.jpg'
p182
aS'0486_60544417.jpg'
p183
aS'0493_1195436405.jpg'
p184
aS'0533_391279988.jpg'
p185
aS'0546_310537643.jpg'
p186
aS'0593_69209355.jpg'
p187
aS'0014_307960000.jpg'
p188
aS'0313_2540924421.jpg'
p189
aS'0345_308817587.jpg'
p190
aS'0227_2536658640.jpg'
p191
aS'0234_47399565.jpg'
p192
aS'0280_443403867.jpg'
p193
aS'0318_2093806525.jpg'
p194
aS'0330_1373177710.jpg'
p195
aS'0451_488125574.jpg'
p196
aS'0019_313109121.jpg'
p197
aS'0090_319623750.jpg'
p198
aS'0095_77428448.jpg'
p199
aS'0440_235679304.jpg'
p200
aS'0550_61389171.jpg'
p201
aS'0042_2282502465.jpg'
p202
aS'0209_2443087913.jpg'
p203
aS'0403_204552765.jpg'
p204
aS'0406_1711094056.jpg'
p205
aS'0460_1218224594.jpg'
p206
aS'0211_87077330.jpg'
p207
aS'0373_127145357.jpg'
p208
aS'0377_127145980.jpg'
p209
aS'0413_303864972.jpg'
p210
aS'0087_2460882043.jpg'
p211
aS'0097_2423770091.jpg'
p212
aS'0254_457206527.jpg'
p213
aS'0274_2060984650.jpg'
p214
aS'0276_2461715214.jpg'
p215
aS'0284_2390756587.jpg'
p216
aS'0299_280229223.jpg'
p217
aS'0311_2242038525.jpg'
p218
aS'0413_2162890733.jpg'
p219
aS'0036_143636966.jpg'
p220
aS'0042_332051022.jpg'
p221
aS'0062_378569882.jpg'
p222
aS'0063_135358119.jpg'
p223
aS'0206_2165282953.jpg'
p224
aS'0370_2020793818.jpg'
p225
aS'0371_513991158.jpg'
p226
aS'0375_475914982.jpg'
p227
aS'0451_414753116.jpg'
p228
aS'0012_1803230025.jpg'
p229
aS'0035_889006645.jpg'
p230
aS'0095_368122234.jpg'
p231
aS'0241_439612326.jpg'
p232
aS'0290_350164307.jpg'
p233
aS'0344_448015905.jpg'
p234
aS'0018_167630455.jpg'
p235
aS'0030_1038150842.jpg'
p236
aS'0047_868402019.jpg'
p237
aS'0098_2255038258.jpg'
p238
aS'0374_2559447911.jpg'
p239
aS'0416_1425890646.jpg'
p240
aS'0480_14047500.jpg'
p241
aS'0492_2172630521.jpg'
p242
aS'0576_164520885.jpg'
p243
aS'0479_381639468.jpg'
p244
aS'0570_2286429154.jpg'
p245
aS'0204_627185937.jpg'
p246
aS'0246_326773480.jpg'
p247
aS'0390_2498171005.jpg'
p248
aS'0355_2327829496.jpg'
p249
aS'0008_310398497.jpg'
p250
aS'0029_280476613.jpg'
p251
aS'0039_442451276.jpg'
p252
aS'0065_1944797327.jpg'
p253
aS'0081_1000274437.jpg'
p254
aS'0091_193296002.jpg'
p255
aS'0281_294263216.jpg'
p256
aS'0320_305644365.jpg'
p257
aS'0370_2087603850.jpg'
p258
aS'0384_268601063.jpg'
p259
aS'0399_113199228.jpg'
p260
aS'0402_303958692.jpg'
p261
aS'0459_315698254.jpg'
p262
aS'0490_61008286.jpg'
p263
aS'0589_2091469998.jpg'
p264
aS'0095_2639075543.jpg'
p265
aS'0387_2148007942.jpg'
p266
aS'0582_485781606.jpg'
p267
aS'0229_2130448120.jpg'
p268
aS'0350_350973894.jpg'
p269
aS'0390_29075558.jpg'
p270
aS'0438_148638038.jpg'
p271
aS'0506_158516268.jpg'
p272
aS'0578_227121621.jpg'
p273
aS'0025_377465084.jpg'
p274
aS'0264_2263755522.jpg'
p275
aS'0269_2223616799.jpg'
p276
aS'0370_358276060.jpg'
p277
aS'0382_18327702.jpg'
p278
aS'0246_2396105994.jpg'
p279
aS'0251_2395271875.jpg'
p280
aS'0393_2400153503.jpg'
p281
aS'0427_2560227973.jpg'
p282
aS'0440_2275932567.jpg'
p283
aS'0073_780252863.jpg'
p284
aS'0338_438991531.jpg'
p285
aS'0347_2329083350.jpg'
p286
aS'0067_2614985551.jpg'
p287
aS'0086_2459319640.jpg'
p288
aS'0208_2111489022.jpg'
p289
aS'0290_1324182242.jpg'
p290
aS'0328_275493474.jpg'
p291
aS'0356_2539101993.jpg'
p292
aS'0438_2239805322.jpg'
p293
aS'0024_265446043.jpg'
p294
aS'0040_2550711977.jpg'
p295
aS'0057_2377973593.jpg'
p296
aS'0067_181145382.jpg'
p297
aS'0097_2576471418.jpg'
p298
aS'0220_177803689.jpg'
p299
aS'0239_1452822916.jpg'
p300
aS'0349_2612320848.jpg'
p301
aS'0361_1814979984.jpg'
p302
aS'0376_134948783.jpg'
p303
aS'0407_555521271.jpg'
p304
aS'0412_46922952.jpg'
p305
aS'0426_2419432416.jpg'
p306
aS'0326_2080605301.jpg'
p307
aS'0437_516981981.jpg'
p308
aS'0002_376728638.jpg'
p309
aS'0005_3852131.jpg'
p310
aS'0023_664494180.jpg'
p311
aS'0061_2550836757.jpg'
p312
aS'0081_829731205.jpg'
p313
aS'0215_2615266882.jpg'
p314
aS'0216_2223624136.jpg'
p315
aS'0360_229174503.jpg'
p316
aS'0219_2453342065.jpg'
p317
aS'0463_27907174.jpg'
p318
aS'0509_154788696.jpg'
p319
aS'0045_1197866219.jpg'
p320
aS'0077_131975834.jpg'
p321
aS'0083_6679549.jpg'
p322
aS'0210_101334480.jpg'
p323
aS'0223_143388756.jpg'
p324
aS'0227_211411048.jpg'
p325
aS'0239_2264558699.jpg'
p326
aS'0257_782431942.jpg'
p327
aS'0263_352382893.jpg'
p328
aS'0299_55022112.jpg'
p329
aS'0317_494076271.jpg'
p330
aS'0318_424213063.jpg'
p331
aS'0384_159498973.jpg'
p332
aS'0498_2515009456.jpg'
p333
aS'0515_2440990274.jpg'
p334
aS'0591_484921062.jpg'
p335
aS'0667_2179869418.jpg'
p336
aS'0677_418023431.jpg'
p337
aS'0689_304166232.jpg'
p338
aS'0052_2115146154.jpg'
p339
aS'0246_147474762.jpg'
p340
aS'0298_2115133686.jpg'
p341
aS'0311_380718096.jpg'
p342
aS'0445_448871453.jpg'
p343
aS'0483_524583031.jpg'
p344
aS'0503_422404974.jpg'
p345
aS'0549_112817154.jpg'
p346
aS'0509_221011613.jpg'
p347
aS'0554_41945881.jpg'
p348
aS'0557_551498655.jpg'
p349
aS'0067_85175647.jpg'
p350
aS'0072_364103924.jpg'
p351
aS'0267_14610761.jpg'
p352
aS'0274_345259431.jpg'
p353
aS'0276_108730241.jpg'
p354
aS'0341_255096142.jpg'
p355
aS'0387_114988685.jpg'
p356
aS'0388_341244792.jpg'
p357
aS'0503_534610382.jpg'
p358
aS'0571_92395757.jpg'
p359
aS'0581_2286120456.jpg'
p360
aS'0056_523072803.jpg'
p361
aS'0083_2456097299.jpg'
p362
aS'0337_1137135666.jpg'
p363
aS'0010_326503083.jpg'
p364
aS'0023_373456480.jpg'
p365
aS'0233_771894400.jpg'
p366
aS'0367_439285617.jpg'
p367
aS'0371_2026820051.jpg'
p368
aS'0382_2461305933.jpg'
p369
aS'0474_1433984858.jpg'
p370
aS'0554_2129708413.jpg'
p371
aS'0568_2174074407.jpg'
p372
aS'0570_279330710.jpg'
p373
aS'0579_2319093957.jpg'
p374
aS'0592_2460618673.jpg'
p375
aS'0593_2318524565.jpg'
p376
aS'0259_2205482938.jpg'
p377
aS'0367_1887825485.jpg'
p378
aS'0430_293289453.jpg'
p379
aS'0083_67244698.jpg'
p380
aS'0417_1528584337.jpg'
p381
aS'0368_2241509578.jpg'
p382
aS'0057_36443540.jpg'
p383
aS'0306_2719405477.jpg'
p384
aS'0320_2735559807.jpg'
p385
aS'0427_1372240437.jpg'
p386
aS'0500_151328978.jpg'
p387
aS'0315_123847061.jpg'
p388
aS'0481_229068943.jpg'
p389
aS'0011_2271948699.jpg'
p390
aS'0204_144630253.jpg'
p391
aS'0587_53140191.jpg'
p392
aS'0007_2493659489.jpg'
p393
aS'0573_2386537657.jpg'
p394
aS'0009_89559712.jpg'
p395
aS'0432_2145837554.jpg'
p396
aS'0404_82128528.jpg'
p397
aS'0462_1602563789.jpg'
p398
aS'0001_352403456.jpg'
p399
aS'0064_145274946.jpg'
p400
aS'0075_2291230848.jpg'
p401
aS'0280_116843170.jpg'
p402
aS'0311_1454672187.jpg'
p403
aS'0369_304089979.jpg'
p404
aS'0398_2293675068.jpg'
p405
aS'0413_290890040.jpg'
p406
aS'0431_98567431.jpg'
p407
aS'0479_439735562.jpg'
p408
aS'0504_2180186332.jpg'
p409
aS'0524_303641730.jpg'
p410
aS'0451_332340827.jpg'
p411
aS'0548_373623319.jpg'
p412
aS'0552_2070621413.jpg'
p413
aS'0557_153099660.jpg'
p414
aS'0558_97139727.jpg'
p415
aS'0562_300202762.jpg'
p416
aS'0572_435734786.jpg'
p417
aS'0577_2279781824.jpg'
p418
aS'0096_2169503032.jpg'
p419
aS'0220_2254905060.jpg'
p420
aS'0009_6481762.jpg'
p421
aS'0010_231649733.jpg'
p422
aS'0056_12246629.jpg'
p423
aS'0202_741494.jpg'
p424
aS'0234_1906662004.jpg'
p425
aS'0373_123885782.jpg'
p426
aS'0490_209930926.jpg'
p427
aS'0590_304108610.jpg'
p428
aS'0102_2746828589.jpg'
p429
aS'0333_1520473493.jpg'
p430
aS'0463_80032093.jpg'
p431
aS'0474_871220989.jpg'
p432
aS'0376_322863188.jpg'
p433
aS'0553_1234547804.jpg'
p434
aS'0003_15805308.jpg'
p435
aS'0382_426997863.jpg'
p436
aS'0522_323885329.jpg'
p437
aS'0047_622612084.jpg'
p438
aS'0259_749300760.jpg'
p439
aS'0272_54758871.jpg'
p440
aS'0383_1351575524.jpg'
p441
aS'0507_2577510515.jpg'
p442
aS'0501_2139827504.jpg'
p443
aS'0561_2139827236.jpg'
p444
aS'0435_134682181.jpg'
p445
aS'0254_1244907552.jpg'
p446
aS'0526_480371427.jpg'
p447
aS'0467_69889440.jpg'
p448
aS'0022_43946201.jpg'
p449
aS'0029_70038158.jpg'
p450
aS'0046_1172675049.jpg'
p451
aS'0048_2154264768.jpg'
p452
aS'0062_77405592.jpg'
p453
aS'0086_109782504.jpg'
p454
aS'0093_477054602.jpg'
p455
aS'0095_304340429.jpg'
p456
aS'0307_387147201.jpg'
p457
aS'0319_1317845070.jpg'
p458
aS'0334_61323457.jpg'
p459
aS'0346_152856368.jpg'
p460
aS'0369_3133521.jpg'
p461
aS'0419_2647749521.jpg'
p462
aS'0434_311654751.jpg'
p463
aS'0474_11093658.jpg'
p464
aS'0556_122696827.jpg'
p465
aS'0565_200350999.jpg'
p466
aS'0573_337286141.jpg'
p467
aS'0577_5743319.jpg'
p468
aS'0580_98222304.jpg'
p469
aS'0571_240287880.jpg'
p470
aS'0002_2138445810.jpg'
p471
aS'0038_1778354339.jpg'
p472
aS'0046_89250252.jpg'
p473
aS'0068_54026720.jpg'
p474
aS'0241_2049302248.jpg'
p475
aS'0270_809557540.jpg'
p476
aS'0272_489738849.jpg'
p477
aS'0273_203787982.jpg'
p478
aS'0276_230748653.jpg'
p479
aS'0395_410048108.jpg'
p480
aS'0402_332313976.jpg'
p481
aS'0530_1898542942.jpg'
p482
aS'0481_2365324926.jpg'
p483
aS'0211_2396409713.jpg'
p484
aS'0493_2652762233.jpg'
p485
aS'0020_169028344.jpg'
p486
aS'0208_306969742.jpg'
p487
aS'0245_2219035191.jpg'
p488
aS'0248_427914873.jpg'
p489
aS'0259_123942568.jpg'
p490
aS'0286_429357269.jpg'
p491
aS'0372_85906967.jpg'
p492
aS'0403_2489234075.jpg'
p493
aS'0470_2409858730.jpg'
p494
aS'0477_516862729.jpg'
p495
aS'0481_1391981197.jpg'
p496
aS'0556_213049164.jpg'
p497
aS'0561_149540971.jpg'
p498
aS'0586_72298669.jpg'
p499
aS'0482_2179087855.jpg'
p500
aS'0371_2504886219.jpg'
p501
aS'0012_111169497.jpg'
p502
aS'0036_215996371.jpg'
p503
aS'0058_277945534.jpg'
p504
aS'0099_304727032.jpg'
p505
aS'0207_500923150.jpg'
p506
aS'0209_5874489.jpg'
p507
aS'0244_124699637.jpg'
p508
aS'0259_34998980.jpg'
p509
aS'0298_1370736971.jpg'
p510
aS'0333_110688112.jpg'
p511
aS'0342_2342911408.jpg'
p512
aS'0374_2153774675.jpg'
p513
aS'0379_1417242271.jpg'
p514
aS'0406_620901347.jpg'
p515
aS'0425_2083555415.jpg'
p516
aS'0099_138963490.jpg'
p517
aS'0256_1383077146.jpg'
p518
aS'0263_703556747.jpg'
p519
aS'0288_2342860532.jpg'
p520
aS'0289_2023031900.jpg'
p521
aS'0311_288493554.jpg'
p522
aS'0319_28578376.jpg'
p523
aS'0320_99754073.jpg'
p524
aS'0396_2667638644.jpg'
p525
aS'0475_513472967.jpg'
p526
aS'0505_1262772462.jpg'
p527
aS'0024_1311421001.jpg'
p528
aS'0046_2340723703.jpg'
p529
aS'0054_108725456.jpg'
p530
aS'0076_216300934.jpg'
p531
aS'0085_1299782822.jpg'
p532
aS'0094_2450852731.jpg'
p533
aS'0213_244084614.jpg'
p534
aS'0234_2597181585.jpg'
p535
aS'0235_330818956.jpg'
p536
aS'0269_64842558.jpg'
p537
aS'0301_1756042414.jpg'
p538
aS'0308_154934240.jpg'
p539
aS'0349_2581895912.jpg'
p540
aS'0367_2602790157.jpg'
p541
aS'0389_2287514363.jpg'
p542
aS'0411_1885932685.jpg'
p543
aS'0455_1306195991.jpg'
p544
aS'0522_2177802938.jpg'
p545
aS'0456_2217954984.jpg'
p546
aS'0028_1525308681.jpg'
p547
aS'0072_415492582.jpg'
p548
aS'0216_2408982042.jpg'
p549
aS'0229_184139742.jpg'
p550
aS'0259_264170988.jpg'
p551
aS'0267_897042172.jpg'
p552
aS'0278_467130418.jpg'
p553
aS'0280_182778486.jpg'
p554
aS'0281_260741226.jpg'
p555
aS'0285_298273007.jpg'
p556
aS'0332_484316047.jpg'
p557
aS'0563_423503346.jpg'
p558
aS'0577_364324338.jpg'
p559
aS'0398_233584997.jpg'
p560
aS'0404_1357947702.jpg'
p561
aS'0484_2645182288.jpg'
p562
aS'0470_111122287.jpg'
p563
aS'0008_2055905845.jpg'
p564
aS'0035_448290306.jpg'
p565
aS'0082_376467394.jpg'
p566
aS'0089_109674173.jpg'
p567
aS'0315_2202722843.jpg'
p568
aS'0335_513375351.jpg'
p569
aS'0396_184013010.jpg'
p570
aS'0428_1250553583.jpg'
p571
aS'0492_2069293834.jpg'
p572
aS'0503_2572820548.jpg'
p573
aS'0516_2169132044.jpg'
p574
aS'0531_503493316.jpg'
p575
aS'0533_256108195.jpg'
p576
aS'0579_507306459.jpg'
p577
aS'0624_2240659402.jpg'
p578
aS'0095_448177571.jpg'
p579
aS'0380_679431538.jpg'
p580
aS'0457_544506799.jpg'
p581
aS'0495_249778037.jpg'
p582
aS'0519_2059182077.jpg'
p583
aS'0603_2122088731.jpg'
p584
aS'0622_1456354851.jpg'
p585
aS'0657_283079453.jpg'
p586
aS'0307_1808000858.jpg'
p587
aS'0017_396050911.jpg'
p588
aS'0047_4849633.jpg'
p589
aS'0210_31930011.jpg'
p590
aS'0431_1115019810.jpg'
p591
aS'0433_2543133441.jpg'
p592
aS'0237_1512706224.jpg'
p593
aS'0253_6329529.jpg'
p594
aS'0328_120155103.jpg'
p595
aS'0018_968389692.jpg'
p596
aS'0024_1336652415.jpg'
p597
aS'0034_115229818.jpg'
p598
aS'0472_2348219.jpg'
p599
aS'0343_454214634.jpg'
p600
aS'0012_253993371.jpg'
p601
aS'0076_280274406.jpg'
p602
aS'0092_243695008.jpg'
p603
aS'0208_994691714.jpg'
p604
aS'0254_49290767.jpg'
p605
aS'0259_762776924.jpg'
p606
aS'0263_7303104.jpg'
p607
aS'0264_161640407.jpg'
p608
aS'0269_342469842.jpg'
p609
aS'0308_465939428.jpg'
p610
aS'0326_423525784.jpg'
p611
aS'0335_89948280.jpg'
p612
aS'0349_131402113.jpg'
p613
aS'0360_2484474380.jpg'
p614
aS'0375_2666540278.jpg'
p615
aS'0376_1353141423.jpg'
p616
aS'0382_201549066.jpg'
p617
aS'0401_409764588.jpg'
p618
aS'0404_2132714537.jpg'
p619
aS'0406_358443999.jpg'
p620
aS'0414_252091142.jpg'
p621
aS'0419_258009934.jpg'
p622
aS'0494_107303895.jpg'
p623
aS'0495_511197576.jpg'
p624
aS'0497_718212306.jpg'
p625
aS'0519_2359738438.jpg'
p626
aS'0536_2514236747.jpg'
p627
aS'0540_387117355.jpg'
p628
aS'0560_1153628048.jpg'
p629
aS'0563_498736324.jpg'
p630
aS'0600_766764101.jpg'
p631
aS'0601_2370954062.jpg'
p632
aS'0603_2056626221.jpg'
p633
aS'0621_2542470198.jpg'
p634
aS'0625_2172920024.jpg'
p635
aS'0627_2671538415.jpg'
p636
aS'0628_2186718485.jpg'
p637
aS'0629_230371538.jpg'
p638
aS'0630_1105839299.jpg'
p639
aS'0220_149209095.jpg'
p640
aS'0228_443487926.jpg'
p641
aS'0248_2486264506.jpg'
p642
aS'0318_405360549.jpg'
p643
aS'0347_1391307815.jpg'
p644
aS'0352_243340869.jpg'
p645
aS'0370_412786385.jpg'
p646
aS'0517_2208958502.jpg'
p647
aS'0552_350123467.jpg'
p648
aS'0035_22237769.jpg'
p649
aS'0201_131377774.jpg'
p650
aS'0219_137299395.jpg'
p651
aS'0298_112965978.jpg'
p652
aS'0299_2436697942.jpg'
p653
aS'0302_33571500.jpg'
p654
aS'0313_66738061.jpg'
p655
aS'0318_445157889.jpg'
p656
aS'0333_1467520895.jpg'
p657
aS'0349_2402076687.jpg'
p658
aS'0357_957375104.jpg'
p659
aS'0377_510352784.jpg'
p660
aS'0411_150746257.jpg'
p661
aS'0426_1369518980.jpg'
p662
aS'0502_117481481.jpg'
p663
aS'0568_69011675.jpg'
p664
aS'0003_2696108622.jpg'
p665
aS'0027_2140372749.jpg'
p666
aS'0034_308877300.jpg'
p667
aS'0063_100471849.jpg'
p668
aS'0085_333750781.jpg'
p669
aS'0087_421985660.jpg'
p670
aS'0098_2165101873.jpg'
p671
aS'0215_382715914.jpg'
p672
aS'0218_390133036.jpg'
p673
aS'0232_420955109.jpg'
p674
aS'0240_378548586.jpg'
p675
aS'0246_342780198.jpg'
p676
aS'0268_2113193070.jpg'
p677
aS'0295_383119576.jpg'
p678
aS'0299_6069270.jpg'
p679
aS'0312_376416150.jpg'
p680
aS'0333_89919507.jpg'
p681
aS'0347_309733153.jpg'
p682
aS'0365_161541596.jpg'
p683
aS'0366_7100624.jpg'
p684
aS'0369_310648977.jpg'
p685
aS'0405_107725702.jpg'
p686
aS'0412_64438599.jpg'
p687
aS'0419_2314871620.jpg'
p688
aS'0443_70144228.jpg'
p689
aS'0473_462782708.jpg'
p690
aS'0478_69584595.jpg'
p691
aS'0483_2230861211.jpg'
p692
aS'0518_100795295.jpg'
p693
aS'0539_2369572040.jpg'
p694
aS'0552_131922555.jpg'
p695
aS'0577_305016660.jpg'
p696
aS'0591_373276126.jpg'
p697
aS'0243_830267375.jpg'
p698
aS'0249_64279610.jpg'
p699
aS'0526_2720373481.jpg'
p700
aS'0023_420328710.jpg'
p701
aS'0006_2202849133.jpg'
p702
aS'0074_349197206.jpg'
p703
aS'0244_415650547.jpg'
p704
aS'0253_2331139048.jpg'
p705
aS'0263_216075894.jpg'
p706
aS'0281_2386220256.jpg'
p707
aS'0349_2369893724.jpg'
p708
aS'0355_2476445757.jpg'
p709
aS'0443_2621791760.jpg'
p710
aS'0516_2551576402.jpg'
p711
aS'0521_1479083954.jpg'
p712
aS'0552_218322479.jpg'
p713
aS'0570_424573530.jpg'
p714
aS'0022_468395542.jpg'
p715
aS'0236_419424243.jpg'
p716
aS'0407_281610921.jpg'
p717
aS'0425_362960502.jpg'
p718
aS'0439_14476790.jpg'
p719
aS'0502_2596711657.jpg'
p720
aS'0503_2441078148.jpg'
p721
aS'0510_2116022614.jpg'
p722
aS'0545_2659615654.jpg'
p723
aS'0546_224762633.jpg'
p724
aS'0558_497700292.jpg'
p725
aS'0561_1591227598.jpg'
p726
aS'0012_9478475.jpg'
p727
aS'0015_3964311.jpg'
p728
aS'0019_2111187900.jpg'
p729
aS'0034_395512010.jpg'
p730
aS'0072_331071453.jpg'
p731
aS'0078_419710844.jpg'
p732
aS'0097_2120902.jpg'
p733
aS'0204_149041905.jpg'
p734
aS'0331_475320275.jpg'
p735
aS'0342_2524045147.jpg'
p736
aS'0433_280857249.jpg'
p737
aS'0443_454192748.jpg'
p738
aS'0463_2254468925.jpg'
p739
aS'0503_451034636.jpg'
p740
aS'0521_2451525947.jpg'
p741
aS'0533_2081523342.jpg'
p742
aS'0552_727248657.jpg'
p743
aS'0560_2181459890.jpg'
p744
aS'0562_2211173893.jpg'
p745
aS'0574_1439330146.jpg'
p746
aS'0592_320595205.jpg'
p747
aS'0005_2736069940.jpg'
p748
aS'0226_394002776.jpg'
p749
aS'0434_459768741.jpg'
p750
aS'0582_427958460.jpg'
p751
aS'0046_467025574.jpg'
p752
aS'0357_2256478590.jpg'
p753
aS'0368_2295419391.jpg'
p754
aS'0446_687143904.jpg'
p755
aS'0457_476531656.jpg'
p756
aS'0527_141795497.jpg'
p757
aS'0531_512193684.jpg'
p758
aS'0533_403413476.jpg'
p759
aS'0028_470519612.jpg'
p760
aS'0099_470519458.jpg'
p761
aS'0218_486672137.jpg'
p762
aS'0542_2077391873.jpg'
p763
aS'0027_158181908.jpg'
p764
aS'0034_1512615089.jpg'
p765
aS'0048_71138082.jpg'
p766
aS'0051_1219375813.jpg'
p767
aS'0279_1386182063.jpg'
p768
aS'0301_392237148.jpg'
p769
aS'0327_35291888.jpg'
p770
aS'0405_26712965.jpg'
p771
aS'0417_219718446.jpg'
p772
aS'0418_292326124.jpg'
p773
aS'0493_698875097.jpg'
p774
aS'0531_89594514.jpg'
p775
aS'0544_363800952.jpg'
p776
aS'0552_900057489.jpg'
p777
aS'0573_2363553237.jpg'
p778
aS'0583_197797500.jpg'
p779
aS'0587_292740751.jpg'
p780
aS'0006_209115798.jpg'
p781
aS'0047_466344330.jpg'
p782
aS'0086_458702804.jpg'
p783
aS'0242_144135572.jpg'
p784
aS'0299_347784683.jpg'
p785
aS'0300_27275098.jpg'
p786
aS'0328_488636182.jpg'
p787
aS'0331_27311428.jpg'
p788
aS'0340_194001111.jpg'
p789
aS'0386_1197345701.jpg'
p790
aS'0388_517456086.jpg'
p791
aS'0389_432245781.jpg'
p792
aS'0418_2494868748.jpg'
p793
aS'0440_462262106.jpg'
p794
aS'0492_500779259.jpg'
p795
aS'0507_870995842.jpg'
p796
aS'0515_231909625.jpg'
p797
aS'0530_886432445.jpg'
p798
aS'0542_1467716581.jpg'
p799
aS'0544_1750408159.jpg'
p800
aS'0545_2188588517.jpg'
p801
aS'0549_307392445.jpg'
p802
aS'0550_1443831453.jpg'
p803
aS'0558_1472550893.jpg'
p804
aS'0562_47248349.jpg'
p805
aS'0572_511034331.jpg'
p806
aS'0019_283448259.jpg'
p807
aS'0039_83047754.jpg'
p808
aS'0093_523188753.jpg'
p809
aS'0096_128826595.jpg'
p810
aS'0100_475531393.jpg'
p811
aS'0221_1623421.jpg'
p812
aS'0228_45062023.jpg'
p813
aS'0277_109082032.jpg'
p814
aS'0389_102672820.jpg'
p815
aS'0418_474741104.jpg'
p816
aS'0425_432600792.jpg'
p817
aS'0470_73195612.jpg'
p818
aS'0542_1908606063.jpg'
p819
aS'0557_2105793717.jpg'
p820
aS'0054_2200348313.jpg'
p821
aS'0056_2576774243.jpg'
p822
aS'0060_2278738277.jpg'
p823
aS'0067_613541644.jpg'
p824
aS'0076_2654342366.jpg'
p825
aS'0085_1400090573.jpg'
p826
aS'0087_792012138.jpg'
p827
aS'0090_2078259391.jpg'
p828
aS'0091_2272410484.jpg'
p829
aS'0095_2040702662.jpg'
p830
aS'0205_612573315.jpg'
p831
aS'0210_2569890314.jpg'
p832
aS'0219_874465283.jpg'
p833
aS'0227_2071140892.jpg'
p834
aS'0239_2406529566.jpg'
p835
aS'0251_874438257.jpg'
p836
aS'0252_2122951539.jpg'
p837
aS'0292_718818244.jpg'
p838
aS'0302_1231545997.jpg'
p839
aS'0307_1342433369.jpg'
p840
aS'0414_261633213.jpg'
p841
aS'0417_354640912.jpg'
p842
aS'0454_50072806.jpg'
p843
aS'0463_373083437.jpg'
p844
aS'0488_1279855380.jpg'
p845
aS'0510_1313183888.jpg'
p846
aS'0557_2405490902.jpg'
p847
aS'0558_408827835.jpg'
p848
aS'0566_317585307.jpg'
p849
a.(lp1
Vcameraphon hom cat off dragon tabby dogwalk administrativeassist sarahugh
p2
aVsiluet silueta galway ireland irland eir europ europ night adult adultvideost blu car topv333 silhouet silhouet
p3
aVblack topf25 topv111 butterf adult qual larg july insect pa 2550fav longwoodgard swallowtail easterntigerswallowtail papilio papilionida papilioglauc bmna vent 25fav kennettsqu papilionina explore29 lifelistbut
p4
aVnewzealand yellow 510fav canon eo 350d penguin adult reserv 2006 chick southisland otago specy ey endang peninsul endem aotearo diseas protect yellowey yelloweyedpenguin endangeredspecy ocean threatenedspecies antipod 10faves hoiho megadypt megadyptesantipod anawesomeshot impressedbeauty
p5
aVwint lak cold ic heron bird topv111 1025fav froz adult pa arde febru greatblueheron brrr tinic ardeida ardeaherodia johnheinznwr wadingbird specanim anthromorph animalkingdomelit avianexcel somebodythrowhimaf nwrcontest
p6
aVbear pink toy blood gloom adult plush kawai gloomybear hollyclark
p7
aVnikon adult erithacusrubecul europeanrobin d300 roodborst naturesfinest birdphoto 200400vr theunforgettablepict paarvorm
p8
aVlight portrait peopl wom whit hom window seny horizont modern lady fem work comput shop notebook tabl person read on photo foc day sit adult laptop internet work screen indo eld 80s singl typ 70s cas interest focus typ caucas shallowdof ageold strobist 80plus grandmothergrandparentgreyhair
p9
aVbird topv111 1025fav 510fav ilov backyard adult fee northernmockingbird mimuspolyglotto thrush mealworm
p10
aVmal bird sing adult nj july perch brigantin blackbird redwingedblackbird agelaiusphoenice icterida agelai forsythenwr animalkingdomelit
p11
aVfem vermont adult august rubythroatedhummingbird blueribbonwin redgeran impressedbeauty coolestphotograph coolestphotograph
p12
aVcol mal felin adult vivid majest pow fearless samatrantig criticalyendang
p13
aVpeopl wom flow anim cat germany town adult thuring pot
p14
aVred nat flow catchycol bird sunbird micronikkor200 top20np top20wings crimsonsunbird mal aethopygasiparaj adult singap topv111
p15
aVblu brown mal bird contrast spectacul gold adult feath vivid bluebird
p16
aVblu urb whit canad black reflect cut nat wat bird anim yellow mir can gees birmingham kiss adult wildl beak feath goos drip web naturesfinest featheryfriday msh0607 msh060711 bigpicture2008
p17
aVsf sanfrancisco californ sign beach club book stor big san francisco neon adult nor strip al roar 20s
p18
aVbird bird bird californ quail californiaquail mal adult fent wint snow washington spangl callipeplacalifornic
p19
aVbird adult lifel nj waterfowl barneg loon barnegatlight winterplum redthroatedloon gaviastellat trophyshot barnegatinlet familygaviida
p20
aVbird topv111 georg adult mimbrav northernmockingbird mimuspolyglotto metroatlant mim featheryfriday mimuspolyglott specn setbird setflickrfavorit
p21
aVoc bird 1025fav moss top20animalpix bravo rock adult nj fav sandpip barneg barnegatlighth dunlin calidrisalpin bestfriend sanderl shorebird familyscolopacida winterplum calidrisalb barnegatbay barnegatinlet avianexcel
p22
aVroad toronto ontario canad stat plan canon airpl fir airport aircraft air aeropl aer gas 106 intern 200 airb serv dslr emerg 1785 mississaug depart petro serv pearson a320 320 212 aircanad a106 blueribbonwin torontopearsoninternationalairport a320211 cffwn 40d cyys mfe news46 200804221923200001 blogtocontact2008
p23
aVcar digit canon turkey len landscap eo rebel xt landscap seasid zoom turkiy cabl aer antaly 350 mount cableway top akd eos350 lansdcap naturesfinest f4556 90300 abigfav tahtal flickrenvy diamondclassphotograph ilovemyp onlythebest theperfectphotograph mailcil worldwidelandscap canmom llovemyp showmeyourqualitypixel 2365m
p24
aVbird london superb gul aer urban urbanwildl kensingtongard soe masterpiec roundpond latelight naturesfinest blueribbonwin littlest flickrsbest specanim abigfav platinumphoto anawesomeshot superbmasterpiec avianexcel diamondclassphotograph adoublefav goldstaraward picswithso natureselegantshot qualitypixel llovemyp birdonw
p25
aVblu light sky sun berlin hom grancanar cloud plan leav grey gold licht fly shin air flight wing shap himmel wolk grau aeropl aer return ray blau flugzeug son luft abschy flieg adio damncool luftaufnahm flug form nachhaus inward strahlen cotcpersonalfavorit golddragon anawesomeshot llovemyp fanflickrtast skyascanva
p26
aVoc sea cor indones island island minolt aer jakart konic boe reef cay sulawes breathtak garud 737 ujung atol celeb cengkareng makass pandang jayapur impressedbeauty wowiekazowy coolestphotograph
p27
aVyork wint snow ontario canad tre field canon view aer lon dslr reg the 2470 blueribbonwin 40d bigfav abigfav diamondclassphotograph news46 betterthangood blogtodec15storm 200712171214580010 fffdecember21inspiration thisimagemaynotbeusedinanywaywithoutpriorpermit blogtocontact2008
p28
aVsea sky seascap colo nat cor cloud landscap heart austral aer queensland fab greatbarrierreef hamiltonisland barrierreef whitehavenbeach abigfav anawesomeshot diamondclassphotograph flickrdiamond bestofaustral barrierreefhoneymoon
p29
aVsunset sun grancanar boat gold ev boat spain colo afr mag canaryisland arguineguin abigfav superbmasterpiec diamondclassphotograph flickrdiamond superheart platinumheartaward elyse
p30
aVbird bravo col searchthebest bright cran afr qual crest east crown colo preen magicdonkey specanim animalkingdomelit specanimalphotooftheday superbmasterpiec
p31
aVflow blu orang flow nat beauty wednesday happy pet pretty purpl nat bokeh afr pet daisy africandaisy osteosperm hbw happybokehwednesday
p32
aVdog afr canin expl basenj op picnik thegirl barkless abigfav thelittledoglaugh impressedbeauty excellentphotographeraward
p33
aVatlant grey zoo bravo afr qual tjs aclass tjd outstandingshot specanim animalkingdomelit abigfav anawesomeshot impressedbeauty isawyoufirst
p34
aVdesktop pink flow wallpap plant flow macro nat flor effect interest flor blossom afr background stam download daisy bloom asteracea crown pinkflow dimorphothec floweringpl midimacm asterfamy fauxtograph angiosperm angiosperm americanart endosperm johnathanjstegem everythingpink midimacrom johnathanjosephstegem familiesoffloweringpl
p35
aVfish aquar afr flash strobe cichlid strobist
p36
aVbird d50 nikon afr parrot elmwoodparkzoo abigfav anawesomeshot impressedbeauty avianexcel goldstaraward rubyphotograph
p37
aVfish aquar afr flash strobe cichlid strobist
p38
aVpink flow beauty closeup gard cool afr daisy flowerotic abigfav
p39
aVoc afric city travel sea cloud mountain southafric coast town view afr capetown socy pereir miguelpereir
p40
aVwork d50 off nikon desk comput cisco custom serv ag nagel kuehn kuehnenagel remarket
p41
aVsea sculpt hous canon eo pier kat brighton est thing board front dom hous ag katamar pavil 28105mm tol nicksay 400d estateagentboarddom
p42
aVturkey boat ship secret ag dardanel paulsydney abigfav
p43
aVlif sanfrancisco city railroad blu urb black col col stat night train dark oakland big downtown noir tim metro watch platform favorit rail railway ticket train mast stop amtrak are ag metropol passeng depart conduc pop keep metropolit mans
p44
aVairport fedex ramp ag bridg americ west southwest
p45
aVcarryon overheadbin aircraftcabin guyinoverheadbin fun funny hum
p46
aVita mil window airport cabin traff milano termin plan airlin takeoff vares spot airlin alital mxp aircraft av malpens md80 taxiway aircraftcabin runway md80s limc aeroportodimilanomalpens provinceofvares
p47
aVcockpit aircraftcarry vik navalavy ussabrahamlincoln bluewolv s3b vs35
p48
aVhornet aircraftcarry f18
p49
aVboat kayak ship charleston aircraftcarry paddl collid
p50
aVpacificoc aircraftcarry usnavy underway guidedmissiledestroy ussronaldreagancvn76 c2agreyhound usspaulhamiltonddg60 onlythebest fleetlogisticsupportsquadronthreezerovrc30 theprovid
p51
aVstar starw aircraft xwing war aircraftcarry carry fps xwingfight battlefield2 bf2 battlefield2mod
p52
aVcaliforn travel us publ march boat nikon ship d70 sandiego v100 aircraft avy milit navy machin engin 2006 strike aircraftcarry midway nav vik s3 usnavy carry q3 war 41 sandiegocounty ussmidway headon cv41 antisubmarin toorg s3viking jameswfrazy ussmidwaymuse midway2006 s3vikingantisubmarinestrikeaircraft tocopyright
p53
aVairpl f14 aircraftcarry usscarlvinson cvn70
p54
aVfight ship f14 navy jet launch aircraftcarry tomc catapult afterburn
p55
aVnyc newyorkc skylin jet plan intrepid d200 aircraftcarry carry nion jewast fightingpl
p56
aVnyc newyorkc intrepid aircraftcarry ytf ytfnyc
p57
aVnewyork aircraft concord intrepid aircraftcarry britishairway newyorklasvegas2006
p58
aVcity newyorkc us newyork americ manhat f14 aircraft unitedstatesofameric jet vessel worldwari nav museo westsid aircraftcarry topgun tomc cacc grum thebigappl ussintrepid portaere intrepidseaairspacemuse secondaguerramond pier86
p59
aVlight ita moon window airpl ital view lun 330 airb viaggio aereo jetl onboard it ontopoftheworld blueribbonwin wtl verdebiancorosso eurof challengeyouwin abigfav goldenphotograph diamondclassphotograph flickrdiamond superheart 34000ft alemdagqualityonlyclub
p60
aVcanad plan de airpl nic wing mont adm aircraft air tail jet airpl wing jet first cockpit aeropl mot arct land 101 engin landinggear plan inuit 28 boe flugzeug aeroport aeropuerto nunavut \u98de\u673a airlin dorv aeropl av airlin rud 721 aircraft yul flap 727 vliegtuig trudeau fusel jetlin flugzeug \u98db\u886c\u6a7f firstair \u98db\u6a7f jetlin aeroplano nosegear 727100 aeroport 24r 727100c onapproach 24l 06r 06l luchtvaart \ube44\ud589\uae30 airplanes101 lesav
p61
aVtravel 20d tour beach plan airpl geotag fly airport clos canon20d aircraft avy flight jet bluesky play tour canoneos20d land rush transport airb trop carib approach 1785mm stmaarten loud airbusa340 maho trop sxm airlin av jetpl a340 airfr eos20d takingpict netherlandsantil 343 jetlin planespot thecarib travelphotograph tncm mahobeach princessjulianainternationalairport a340300 gadl commercialavy a343 lowflyingpl aeronav planespot shortfin fourengin airbusa340300 lowapproach stmaartenairport airfranceairb airfrancea340 gadlingphotooftheday airfranceairbusa340
p62
aVcaliforn ca us class publ photoshop plan vint airpl interest airport cool interest nikon pix cs2 ant aircraft avy milit wwi ps soc germ vannuy ww2 kri hdr worldw jjj 3xp photomatix pscs2 kro kriskro interestingness481 vannuysairport ww2germanfighter kk2k
p63
aVmot art 20d plan airpl fly inflight perfect canon20d aircraft avy airpl interestingness1 100v10f canoneos20d airshow motionbl plan airforc pan canoneo warbird tex airshow usairforc flyby militaryavy ffc t6texan ef75300 tommysim greatgeorgiaairshow n299fm vintageflight ta533 propbl cdpg specobject 3030300 tsexpl copyrightwwwtommysimmscom 6358 aviationyellow thewanderlust
p64
aVsunset panoram cloud plan airpl fly dusk avy flight panoram soar glid glid soar sailpl sharplydon
p65
aVplan airpl aircraft jet virgin airlin boe 747 airlin virginatl 747400 744 aerotag aeromanbo aeromodel747 aeroseries400 aeroairlinevir aeroairportkla aerotailgvlip gvlip
p66
aVrailroad tre sky cloud train airpl lawr main train truck tract hdr hermon whittem
p67
aVrac plan airpl crazy mom loop air capt acrob acrobac redbullairrac passionphotograph bimot abigfav platinumphoto anawesomeshot superbmasterpiec diamondclassphotograph theunforgettablepict newacademy brillianteyejewel goldstaraward life~asiseeit diaadiabrasileiro rubyphotograph
p68
aVsunset yellow start plan airpl light airport sonnenuntergang stuttgart aircraft avy transport flight off apron gelb airlin tak flughaf flugzeug aeroport runway flugplatz licht airfield landung leinfeld ed flugfeld echterd anawesomeshot 142mm diamondclassphotograph winnr iamflickr
p69
aVnew travel peopl plan canon airpl eo israel fly fly photo high fly flickr photograph forc wind act aircraft avy milit air tag flight wing aeropl best expl soe avy pilot fli deniro nir airm \u05e0\u05d9\u05e8 iaf israelairforc \u05e6\u05d4\u05dc outstandingshot \u05e7\u05e8\u05d1 \u05d7\u05d9\u05dc golddragon 40d \u05de\u05d8\u05d5\u05e1 platinumphoto anawesomeshot colorphotoaward aplusphoto xnir superbmasterpiec diamondclassphotograph betterthangood goldstaraward
p70
aVmoon night airpl flight sharplydon 123bw
p71
aVseattl vac sky sun snow mountain beach wat cloud plan canon de airpl fly washington nw northwest getaway air flight lin beav glacy form shor sound passeng flo airlin cascad kenm seapl puget 30d haviland
p72
aVplan airpl airport aircraft avy zurich aeropl flughaf flugzeug zuerich aeroport flugplatz zurichairport spot airlin av 767 airfield unitedairlin klot zrh planespot boeing767 b767 star lszh planespot 763 b763 aerotag boeing767300 flughafenzuerich n648ua aero:airport=lszh aero:series=300 aero:man=boeing aero:model=767 flughafenzurich aero:airline=ual aero:tail=n648ua views:v0400=20070504 aeroportdezurich views:v0500=20070630 flugzeugbild klotenairport aeroportodizurigoklot aeroportodizurigo aircraftphoto
p73
aVnew travel sky peopl 20d spee plan canon wow airpl eo israel fly fly photo high fly flickr photograph forc lift wind act aircraft avy milit air tag flight wing aeropl best expl corp airforc elev defens avy pilot hel forc fli deniro nir airm \u05e0\u05d9\u05e8 iaf israelairforc \u05e6\u05d4\u05dc israeldefenseforc \u05e7\u05e8\u05d1 \u05d7\u05d9\u05dc \u05de\u05d8\u05d5\u05e1 wwwxnircom xnir haavir
p74
aVsunset wond airpl atardec contrail sonnenuntergang sundown flugzeug av coucherdesoleil kondensst aeroplano wonderfulshot 10faves abigfav diamondclassphotograph theunforgettablepict theperfectphotograph
p75
aVnep mountain canon austin airpl as 26 peak 2006 expl everest himalaya makalu canonelph canonsd400 explorep 250v10f
p76
aVshow blu red sky whit plan suom finland airpl fly fly ski fight hawk aircraft avy milit smok jet airpl jet trail 9 aeropl trail plan arrow arrow fight pilot redarrow raf pilot aeropl kauhav hawk lentokon ilmailu
p77
aVplan aircraft avy flight boe lax boeing747 747 spot planespot boeing747400 klax airplanef b2174
p78
aVgermany deutschland aircraft avy germ airb 1021 flugzeug pilot airlin luftwaff richthof a310 airplanef
p79
aVsouthwest plan aircraft avy flight boe spot 737 southwestairlin phx winglet planespot 737700 7377h4 73g kphx n257wn airplanef
p80
aVplan aircraft avy flight spot 737 southwestairlin planespot boeing737 737700 boeing737700 7377h4 73g airplanef
p81
aVplan aircraft avy flight cargo boe lax boeing747 747 spot kla planespot cargopl polaraircargo airplanef polarair n498mc
p82
aVplan aircraft avy flight boe spot 737 southwestairlin phx planespot boeing737 kphx 7373h4 airplanef
p83
aVcru carn tre sum vac sun holiday toronto canad beach wat st port airpl landscap fun island lumix aquar airport sand scenery parad surf ship martin coconut thoma glory air sunny 2006 palm resort panason atl palmt day1 diningroom snorkel buffet bahama nassau maart lido canav fx7 virginisland usvirginisland gangway grandmarny aircanad dmcfx7 portcanav 1346 1342 lidodeck paradisepoint cruisevac carnivalgl august26 aug26 fun airporttermin funshipfreddy soufl 26aug 26august platinumdiningroom lidodeckbuffet redsailresta raspberrycremebr
p84
aVmidway island goony goony bird bird 2004 albatross
p85
aVfalkland albatross southatl abigfav
p86
aVbird seagul antarctic whal southernoc whal esperanz vogel albatross antararct mollymalk greybackedalbatross
p87
aVblu sky whit black ey bird fly awesom flight shy albatross threatenedspecies
p88
aVbird bodegabay albatross 2007 pel blackfootedalbatross specanim avianexcel shearwaterjourney
p89
aVoc bird nat anim wildl gre flight antarctic southern pol rang seabird albatross antarct vuln diomedeaex longlin iucn circumpol subantarct passionphotograph icun
p90
aVtwo favorit bird 2004 nat ecolog freeassocy bird tag3 taggedout ilov outdo island ecuad nikon tag2 tag1 nest pic ear pair conserv rom symmetry galapago coast coolpix environ wisdom act gai glob albatross nest givingcompetit angelasevin topphotoblog bestnaturetnc06 0x555143 bestnaturetnc07
p91
aVsanfrancisco urb brick hist sign 30 parkinglot brick book 28 albatross fotogail bapf your300pre2006favesthanks
p92
aVnewzealand canon eo 350d sit roy 2006 otago spot peninsul shag aotearo colony albatross nest punctat awesom stictocarbo royalalbatross spottedsh parekarek stictocarbopunctat impressedbeauty
p93
aVoc sea bird endang rar albatross pel sku
p94
aVboat wellsnextthese norfolk albatross albatro gul bird seabird oc wat sea coast
p95
aVbird anim island island ecuad galapago adv albatross wav espanol
p96
aVholiday bird antarctic albatross
p97
aVold tre bird field forest d50 gees duck wood nikon michig albatross burtonesqu lakeodess
p98
aVlif leic morn blu red sum flow 50mm alley midsum bokeh hometown august alleyway flow osak leicam7 earlyinthemorn m7 f095 kodakektachrome64 canonf095 inl canon50mmf095 30faves30comments300views bokehw
p99
aVautumn tre fal leav germany walk deutschland gold alley bravo path walk herbst muenst soe breathtak novideo muensterland naturesfinest goldenleav rawthem canoneos400d platinumphoto anawesomeshot superapl aplusphoto mybestp flickrelit platinumheartaward andreeagerendy rickspixtop50 rawtheme19022008
p100
aVroad wood autumn tre red orang tre green rot lov nat beauty forest canon germany deutschland eo leaf weid alley hik path laub herbst nat meadow meadow wies wies lin fad fad blat leaf wald coolest soe baum wandern weg pfad weid blass forst madeingermany 400d abigfav platinumphoto amazingam onlythebest christophdudek
p101
aVstreet sky par frant tre publ car tag3 taggedout cloud alley europ tag2 contrail tag1 oneofakind gimp fv5 flickrvers fv10 2008 arbr 75019 hp735 10faves twtme avenuedeflandr samyra freefr my1yearflickrvers
p102
aVbw baby monochrom anim jap digit cat canon alley kit sigm yokoham abigfav
p103
aVtre wint blackandwhit bw whit snow tre finland geotag helsink alley traff snowstorm track tram lan rail publictransport streetcar snowfal blizzard lum talv puu tramway kiskot vallil 7a puit liiken spor ratikk raiteet mustavalkoin nikond200 raitiovaunu valkoin lumisad lumipyry joukkoliiken weatherphotograph valke raitioty kiskoliiken puukuj puukujan lumituisku
p104
aVdog streetart toronto colo graffit stencil alley neon rank beaut drakehotel woofwoof wackydoodl styleinprogress resurfac
p105
aVjap cat camp lumix alley kit chat univers panason stray \u65e5\u672c \u7b2b japon fer chaton bestofc campusc dmcfz8
p106
aVbear orang whit anim expl polarbear amusementpark seaworld 139 blueribbonwin abigfav superbmasterpiec wowiekazowy diamondclassphotograph superheart
p107
aVpark bridg reflect tow wat lin night riv dark light ev rock whitew downtown pow bright denv rapid spir wir shut elect amusementpark sixfl nois plat cherrycreek unedit elitchgard sonydsch9bestshot
p108
aVyellow catchycol vivid liseberg amusementpark soe naturesgallery shieldofexcel ultimateshot superbmasterpiec diamondclassphotograph unforgettablepict vividmast macromarvel
p109
aVsunset sky cloud light rid swing revolv amusementpark osak caplio magicho gx wavesw wellenflieg
p110
aVchin fish tour wat hongkong jellyf chines flo tour expl jel amusementpark oceanpark super
p111
aVfish peix amusementpark stellabrazil
p112
aVfish anim riv zoo duck fight stream pennsylvan wildl amusementpark hershey carp mallard hersheypark zooameric nikonstunninggallery duckspcc4u pcc4u
p113
aVflow macro nat anemon excel naturesfinest anawesomeshot diamondclassphotograph
p114
aVoc lif seattl sea 2 aquar savem 500v20f purpl minolt deleteme10 lavend seal anemon 5d konic maxx tendril 1000v40f timothykhamilton
p115
aVfish tamp aquar florid quot clownf anemon quot peggy saltwateraquar throughtheglass naturesfinest reefaquar quote2 specn thefloridaaquar abigfav pinkskunkclownf frhwofavs
p116
aVnemo redse div egypt scub clownf anemon coralreef naturesfinest amphiprionbicinct superapl aplusphoto diamondclassphotograph twobaranemomef
p117
aVblu flow macro canon bravo van anemon topf150 anemoon blueribbonwin outstandingshot flickrgold powershota640 anawesomeshot colorphotoaward supermasterpiec wwwsofieaudiffretcom
p118
aVmorn friend orang whit flow macro nat anemon poppy fior flor macroaward theunforgettablepict macromarvel magicdonkeysbest
p119
aVoc californ sea moon fish beach wat pool digit sunr landscap jj top20sunrisesunset tid tripod lun anemon jerom lagun orangecounty oc tidepool alienlandscap 1118mm anemonehost jeromeslagl
p120
aVflow ita sculpt flow rom art nat jap season art dec intery ikeban natur yang anemon zen ess medit org fior minim yin minimalismo arrang giappon daffodil narciso intern stagion decorazion scultur kado organico scenograf scenograph sogetsu meditaz cannaindic essenz lifebeauty flowerwatch platinumheartaward goldstaraward luxf ikebanado thepowerofflow colorfullaward
p121
aVpink flow macro gard spring bravo moscow idaho anemon ladybird ladybug springtime pal blueribbonwin abigfav featuredinexpl karmapotd colorphotoaward superbmasterpiec mybestimageforapril2007 thegoldendream
p122
aVtopf25 bravo searchthebest anemon planta wildflow ranunculacea excel coronar naturesfinest magnoliophyt magnoliopsid ranunc canonspeedlite430ex canonef100mmf28macrousm flowerotic fantasticflow 250v10f mywin canoneos400d 30faves30comments300views anawesomeshot aplusphoto vivitar2xteleconvert flowerpicturesnolimit macrophotosnolimit magicofaworldinmacro macrofot macromix macromarvel macroflowerlov superbmacroflow ahqmacro
p123
aVred fab flow sunshin oregon gard spring purpl anemon bloom ladybug ladybeetl blueribbonwin mywin mywin abigfav platinumphoto impressedbeauty natuesfinest naturaleleg fabulousflow ilovemyp magicofaworldinmacro macroawardgroup jeanny\u2019sfoto colourartaward artleg platinumphotograph macromarvel goldstaraward excapturemacro naturepicsthatwow ahqmacro showmeyourqualitypixel
p124
aVlight plant flow macro closeup anemon bec excel themoulinroug naturesfinest ntur 333views supershot 100faves golddragon infinestyl diamondclassphotograph flickrdiamond megashot theunforgettablepict reginaaustr proudshop perfectphotograph thegardenofz dragongold natureselegantshot multimegashot mimamorflow qualitypixel magicdonkeysbest awesomeblossom vangram photoexel oraclex flickrflorescloseupmacro
p125
aVflow macro purpl anemon bloom soe cub supershot fantasticflow abigfav platinumphoto excapturemacro istheresomehiddenm agreaterpurposewaitingificaretohangaround darknesshidesthelight willitleavemebrok cravingtoknow despairofhavingknown isometimesfindimdriftingthroughthislifewithouteffect someagendatobefound
p126
aVfish underw nemo redse egypt clownf anemon scubad anemonef sina coralreef naturesfinest flickrsbest aplusphoto superheart thegoldenmermaid
p127
aVmacro closeup nikon top turquo anemon f25 fav5 turquoisebleu outstandingshot views100fo bigfav
p128
aVlif afric red sea fish macro uw nat wat cor digit mar photo nikon marin parad mar underw nemo littl photo clown sub redse div egypt deep scub div el clownf anemon coolpix 5200 aqu biolog rosso sheikh dep egitto anemonef sharm pesc immersion pagliaccio corallo nat fotosub subacque wetpixel keyofl uderw amphipr bicinct amphiprionbicinct pescepagliaccio underwaterp fondal twobandanemonef fotosubacqu flickrphotoaward qemdfinchadminfaveformay naturewatch coolestphotograph uderwaterphoto
p129
aVoc trip travel sea vac orang holiday fish macro uw nat wat topv111 jap lumix topv555 topv333 marin underw nemo topv444 scub div topv222 septemb panason expl pacificoc clownf anemon trop \u65e5\u672c scubad okinaw topv777 \u6c96\u7e04 topv666 topf10 anemonef 2007 keram topf5 fx30 orangeanemonef tomatoclownf takau99 tomatoanemonef explore100 dmcfx30
p130
aVwhit flow macro nat topv111 jap wond spring sapporo anemon soe naturesfinest blueribbonwin newphotograph abigfav shieldofexcel platinumphoto anawesomeshot superbmasterpiec diamondclassphotograph flickrdiamond overtheexcel macromarvel goldstaraward macroflowerlov
p131
aVpink flow red orang flor flow flor anemon sweetpe bouquet fior \u8ab1 blum nasturt abigfav theunforgettablepict colourartaward artleg donnacleveland
p132
aVoc orang fish nat wat aquar nemo clownf anemon sarasot expery mot naturesfinest fineartphoto superbmasterpiec ithinkthisisart brillianteyejewel naturewatch
p133
aVfish macro wat yellow light aquar jj seahors underw nemo clownf anemon jerom percul polyp nanoreef anemonehost jeromeslagl
p134
aVanemon sunburst anemonef rasmoham macrowideangleegyptsinaisharmelsheikredseanabqparkdivingscubadivingunderw
p135
aVpink flow nat purpl anemon d60 naturesfinest fpc flowerscol 55mmf28aismicro abigfav
p136
aVflow macro beauty purpl searchthebest violet anemon bloom japan\u3000 soe naturesfinest goldenglob fantasticflow abigfav platinumphoto anawesomeshot aplusphoto diamondclassphotograph flowerwatch brillianteyejewel wonderfulworldmix excapt themacrogroup theperfectphotograph macroflowerlov superbmacroflow flowersarefab awesomeblossom
p137
aVflow red anemon habit babel samebutdiff aworkofart inmyhom flowerotic honeysmack sonydslra100 vividmast flower macroflowerlov superbmacroflow celisabeth85flickr copyrightejk
p138
aVblu orang fish nat wat anim cor carpet aquar marin bravo tank clown anemon planet reef percul invert outpost abigfav
p139
aVgreen beauty topv111 1025fav 510fav wow indones ilov topv333 greenisbeauty scub anemon d200 anemonef lembeh topva pfo 3waychallenge 3wc tvx 3w5 photofaceoffwin top30green
p140
aVoc blu sea fish anim nemo olymp clownf anemon cre kho anemonef deepblu e500 naturesfinest zd 1454mm devn abigfav colorphotoaward devinkho
p141
aVshow californ car car wheel digit rac canon toy eo jj cool kiss qual or fast rac anemon kil 10d canon10d jerom driv orangecounty oc saleens7 saleen s7 anemonehost jeromeslagl p1f1
p142
aVanemon scub div tauch underw philippin fish nemo below20m saveme2 deleteme10 cabilao clownf
p143
aVsea fish mar nemo acquar anemon pesc acquario gmt acquariodigenov pescepagliaccio kartpost pigiamaparty colorphotoaward canoneos450d
p144
aVlif afric camer cru sea vac portrait fish macro uw nat wat cor digit photo nikon marin parad mar underw nemo littl photo sub redse div egypt deep scub div clownf anemon coolpix aqu biolog dep egitto crocier anemonef 2007 pesc immersion saintjohn corallo nat fotosub subacque wetpixel amphiprionbicinct pescepagliaccio underwaterp fondal twobandanemonef fotosubacqu naturewatch coolestphotograph missveen
p145
aVsea orang col cor thailand underw nat div anemon reef phiphiisland andam indicoc scud abigfav anawesomeshot aplusphoto anemof redsaddleblack
p146
aVoc trip travel sea vac holiday fish uw nat wat topv111 thailand island topv555 topv333 nikon marin as southeastas underw topv444 div july scub div 2006 topv222 clownf anemon tha samu trop coolpix scubad s1 nikoncoolpixs1 tao topv666 kohtao anemonef gulfofthailand topf5 coolpixs1 group10 pinkanemonef takau99 southwestpinnac
p147
aVlif afric camer cru sea vac fish macro uw nat wat cor digit photo nikon marin parad mar underw nemo littl photo sub redse div egypt deep scub div clownf anemon coolpix aqu biolog dep egitto crocier anemonef 2007 pesc immersion saintjohn corallo nat fotosub subacque wetpixel amphiprionbicinct pescepagliaccio underwaterp fondal twobandanemonef fotosubacqu naturewatch coolestphotograph missveen
p148
aVindones underw anemon sulawes wale anawesomeshot
p149
aVoc blu sea fish wat yellow cor underw anemon wowiekazowy excellentphotographeraward flickrphotoaward
p150
aVfish underw pac scub anemon palau anemonef micrones ocean peleliucut preservetnc06
p151
aVsea wat star aquar starf deep seal olymp anemon hul suck e510 blueribbonwin submaran
p152
aVschool sea holiday fish cor digit island sand marin indianoc anemon snorkel reef mald sho surgeon fihalhoh bestofbestn
p153
aVdog fish plant wat glass boston aquar terry angelf platy rasbor
p154
aVfish hermitcrab col beauty anim cor aquar marin snail crab shrimp fishtank trop crab reef crustac snail liverock angelf shrimps cor frogspawn sea saltw ecosystem invertebr aquar wrass lps colony reeftank tang polyp cleanershrimp sps livec damsel fishtank goby invert hammerc crom hardc euphyll anchorc reeftank zooxanthel
p155
aVbarcelon ca sum portrait favorit orang dog gam hot cut hom beagl wat col anim yellow faun wow landscap light cas drop amaz interest mov bath funny europ day play view act awesom gre ad can catalon septemb fav perro expl lindo cao stun tricol shak hunt cataluny mom macho maresm find aigu gos barcelon select groc estiu taronj 100000 tim joc setembr bany fam catalogn 150000 190000 anawesomeshot bigu onlythebest espulsad mostviw
p156
aVbird nat bird anim bravo berry searchthebest bokeh qual wildl bird fortcollin av av co ornitholog waxw cedarwaxw av 2007 mountainash bombycillacedror passeriform naturesfinest blueribbonwin magicdonkey 50faves featheryfriday instantfav birdphoto nikonstunninggallery bombycillida abigfav shieldofexcel anawesomeshot impressedbeauty 200750plusfaves goldenphotograph avianexcel
p157
aVanim zoo felin belg belgy tig antwerp pred tijg coolest dier antwerp anv animalpark yawn dierentuin naturesfinest gap roofdy katachtig thebiggestgroup cc400 cc300 cc200 cc100 cc500 specanim mandyars impressedbeauty
p158
aVfriend dog pet cut ey anim anim hair puppy happy oth paw ey friend toe toe child head joy ear best delight ear wait pup paw cry fool comfort kne fool hear loy joy puppy loyal forg infinestyl goldenheartaward
p159
aVwat anim alask cat show agu gato gat 500faves soe aseo grifo blueribbonwin interestingness6 instantfav 200faves abigfav aplusphoto ltytr2 ltytr1 cat3100 400faves kittystormtrop
p160
aV2005 cat topf25 anim anim topv111 cat zoo washingtondc smithson washington topf50 topv555 topv333 nikon topf75 bravo d70 nikond70 topv1111 tig topv999 d70s 100v10f bigc mostinterest nationalzoo topv777 sumatrantig jal itsongselection1 topf100 tigr bigc fonz washdc panther pantheratigr itsong\u2013adayatthezoo itsong\u2013nikond70s natlzoo nikograph outstandingshot top20ndpix specn pantheratigrissumatra washingtondistrictofcolumb sumatra nikonstunninggallery specanim animalkingdomelit abigfav usnationalzoo myportfoliobest2 outstandingshotshighlight dsc6777 nikographerjon
p161
aVchin californ bear portrait us anim zoo interest pand sandiego chines bamboo expl panda endangeredspecy meisheng 50faves anawesomeshot jalalspagesanimalkingdomalb fcawin 877d
p162
aVnat wat anim anim cat zoo nat sony tig naturez gato felino h1 anima reflexo tigr itatib gatinho zoologico mamifero ar1 felideo
p163
aVbear autumn fal nat anim anim tag3 taggedout pumpkin zoo nikon tag2 tag1 wildl bear northcarolin polarbear mem pol mam polarbear nczoo perm stevencolbert stephencolbert asheboro n65 northcarolinazoo asheboront 1000v40f ucumar ucumariphoto ucumariphotograph asheboronorthcarolin
p164
aVlif dog pet lov hom anim cat gard thailand fz20 friend kit touch happy panason poon car frontyard caress tend secretgard catanddog dogsandc beautifulday nonthabur sanshiro araley goodmood
p165
aVdog pet whit cut ey look anim hair fur toy nos interest ey furry nikon littl smal expl terry sit star 1755mmf28g lefty westy gaz beg paty westhighlandterry jest interestingness7 d80 abigfav ultimateshot jestershof explore20070720 youvbesthof
p166
aVanim anim smithson pand tian tai nationalzoo endang panda meixiang taish dczoo butterstick pandaunlimit animalkingdomelit fcawin
p167
aV2005 cat topf25 anim anim topv111 topv2222 cat wow zoo washingtondc smithson dc washington lenstag topv555 topv333 nikon flickr tig d70s yay 100v10f bigc nationalzoo sumatrantig jal 70300mmf456g tigr 11282005 bigc fonz washdc panther pantheratigr natlzoo nikograph pantheratigrissumatra washingtondistrictofcolumb sumatra nikonstunninggallery usnationalzoo pleaseremovelowertopvt nikographerjon
p168
aVnyc newyorkc wild portrait us ny newyork anim anim cat zoo bronx tig bronxzoo tigr anim photomatix cotcmostinterest tonemap specanim animalkingdomelit
p169
aVanim anim smithson pand endang panda taish dczoo butterstick pandasunlimit abigfav
p170
aVdog pet baby cut dog nat anim anim canon bravo sweet naturez anima fofo filhot peoplescho d\u2019artagnan abigfav impressedbeauty aplusphoto alemdagqualityonlyclub
p171
aVbear anim mam nikon d70s northcarolin polarbear pol febru nczoo 2007 ursusmaritim naturesfinest blueribbonwin northcarolinazoo supershot instantfav specanim ucumar naturesgallery abigfav ucumariphotograph impressedbeauty superbmasterpiec beyondexcel diamondclassphotograph flickrdiamond superheart
p172
aVbear wild brown nat grass anim alask scary eat salmon machin cud hug beast grizz yet kodiak colbert carn godless naturesfinest kodiakisland diamondclassphotograph naturewatch
p173
aVnat anim anim cat cub bravo wildl tig bigc pred helluv magicdonkey interestingness251 outstandingshot specanim animalkingdomelit abigfav hvhe1 hennievanheerd anawesomeshot impressedbeauty
p174
aVanim cat mam nikon bravo searchthebest nor d70s northcarolin septemb bigc carolin pum coug nczoo mountainl 2007 northcarolinazoo supershot magicdonkey instantfav specanim ucumar animalkingdomelit abigfav ucumariphotograph anawesomeshot superbmasterpiec flickrdiamond superheart
p175
aV2005 cat anim anim topv111 tongu cat hair nos zoo washingtondc smithson dc washington ey topv555 topv333 nikon d70 nikond70 tee tig d70s yay 100v10f whisk bigc nationalzoo sumatrantig tigr bigc fonz washdc squint panther pantheratigr natlzoo nikograph pantheratigrissumatra washingtondistrictofcolumb sumatra usnationalzoo nikographerjon
p176
aVbw dog chi pet black cut argentin anim anim can wow nos sad tristez lab labrad sad sony negro hond bn perro trist lindo hund blacklab anim mansbestfriend hermoso moby melancho onwhit mascot nar mardelplat 2007 madr melancol blacklabrad guau tag5 fav200 nalband labradornegro dscs600 ocico nalb abigfav views5000 pearmax anawesomeshot beautifullysad superbmasterpiec beyondexcel feelsobad abril2007 fiveflickrfav
p177
aVdog pet pet dog anim anim puppy puppy nikon rottweil handheld d200 vesuvio rotty hdr rottweil 18200mm 3xp rotty anditshow 18200mmf3556gvr mrsu 1on1pets vesu impressedbeauty
p178
aVhors mist holland anim stillleb bravo earlymorn nederland thenetherland akb renk themoulinroug hda bej anawesomeshot impressedbeauty superbmasterpiec akbar1947 ysplix theunforgettablepict quadenoord betterthangood theperfectphotograph nederlandvanda life~asiseeit ilovemyp qualitypixel akbarsimons naturallymagn grouptripod
p179
aVnat anim zoo interest 500v20f leopard photoaday animalplanet amurleopard centralfloridazoo naturesfinest cotcmostinterest 1000v40f utataf sigma70300mmapodgmacro 250v10f animalkingdomelit pentaxk10d impressedbeauty
p180
aVchil santiago dog cut anim architect perro perrito lamoned palaciodegobierno descansando fomingo quiltro lmff descanzando pasandolamon paisfotografico
p181
aVhors whit anim vw canon eo kuwait arab arabianhors digitalrebel canoneo equest whitehors q8 artphoto gtm imagest runninghors 24105mm vwc q80 canonl xti golddragon 400d canoneos400d digitalrebelxt canon400d equestrianclub canonef24105f4lis aplusphoto kuwaitphoto diamondclassphotograph diamondclassphotograph excellentphotographeraward kvwc excapt kuwaitartphoto gtmq8 kuwaitart kuwaitvoluntaryworkc kuwaitvwc grendizer99 kuwaitphotograph grendizer99photos kuwaithorsephotograph kuwaitarabianhors kuwaithorsephoto
p182
aVautumn mus dog cat pet fal dog leav anim cat wow lyr furry octob 500v20f song tabby shel kitty char ruf mostfavorit bell iluvmydogfav shetlandsheepdog shel catanddog shetlandsheepdog hugsrgood 1000v40f cat1000
p183
aVpict salzburg nat anim anim faun canon zoo tier photo bravo wolf flickr foto im photo tee nat pict sigm im bit expl foto bit canon5d al ausflug tierpark lup tiergart hund wolv tier yawn gebiss wildpark hellbrun can animalphotograph canislup tierfotografy zoolog flickrexpl naturfotografy beiss lebewes raubty parkstock supershot expl raubty outstandingshot geb specanim animalkingdomelit outstandingshot anawesomeshot aplusphoto ultimateshot leitenbau diamondclassphotograph ostrellin wwwleitenbauernet
p184
aVflow red cat pet black anim ros contrast cat ey smel furryfriday inky supershot cc200 cc500 animaladdict abigfav shesnuckinfut bestofc february2007 impressedbeauty cat900 gggeyes boc0307 potwkkc30 gggflower
p185
aVcat cut lov anim anim cat felin kiss funny tabby felin hug nin jacko levan mywin abigfav kissablek impressedbeauty
p186
aV2005 cat anim anim topv111 cat geotag zoo washingtondc smithson dc washington lenstag topv333 nikon tig d70s bigc nationalzoo sumatrantig jal 70300mmf456g 70300mm tigr bigc fonz washdc panther pantheratigr natlzoo nikograph pantheratigrissumatra washingtondistrictofcolumb sumatra usnationalzoo nikographerjon
p187
aVred arizon southwest riv photograph jam colorado rock desert plateau nat canyon up pag antelop navajo slot phelp fpc mandj98 impressedbeauty
p188
aVus nat oneofakind canyon antelop colorphotoaward wonderfulworldmix natureoutpost betterthangood natureselegantshot qualitypixel nearpagelakepowel
p189
aVred arizon southwest riv photograph jam colorado rock desert plateau nat canyon up pag antelop navajo slot phelp mandj98
p190
aVblu boy brazil sky kit tow yellow brasil cloud tv kid interest interest df child cq brasil antenn explorep carlosquandt 1in10fav100v
p191
aVblu col colo tow composit photoshop pol commun effect antenn rad facil
p192
aVtow jap tokyo construct symbol lookingup lookup fram tokyotow effect praiseandcurseofthec antenn televisiontow steelfram
p193
aVchristmas red tow sanantonio skyscrap light downtown texa antenn towerl holday flickrclubs silentbutl
p194
aVchin city sky tow night landscap real light smog tv view dark skyscrap shangha smok gre dream happy cielo fut futuram luc pudong viaggio not antenn tvtower cin moderno showmustgoon paesaggio real shanga futuro spettacolo fumo spazio sogno magnifico sorprend grattaciel senzaparol esist futuristico iocero wonderfo allucin wangpu nangpu iocisonostat wangp
p195
aVpink red black flow macro yellow insect leaf leg spot peony ladybug bud antenn natu tanakawho
p196
aVchristmas dog sil cut holiday pos antl bernesemountaindog bernes thrilled theworldthroughmyey impressedbeauty
p197
aVcat photoshop kingdom antl abyssin izzy brunel aby isambardkingdombrunel issy isambard cc800 cc200 cc100 cc600 cc900 isambardkingdomc cat900
p198
aVchristmas hom sanjos californ canon5d canonef24105f4l lenstag wallac costum antl reind dog star unitedstatesofameric sixwordst reindog
p199
aVsunset lak canad mountain reflect wat nikon jasp antl albert elk d200 bullelk nikond200
p200
aVsign southdakot antl ghosttown prairy sir
p201
aVroad shadow tre fog vancouv sunr apart pav tow meadow willow highr stanleypark ray westend backlight parkdr whileyouweresleep ceperleymeadow
p202
aVtrip travel ven vac ita hous build wat carpet boat can nikon europ apart gondol d300 2470f28 doctony
p203
aVold par frant tow europ apart eiffel
p204
aVnyc sign facad lowlight neon apart cross sin gotham
p205
aVlongexpos blu sea sky wat vancouv boat nikon apart britishcolumb tripod falsecreek condo mast d80
p206
aVcolumbusohio apartmentcomplex hibern civilwarvet reynoldsburg carlislecemetery
p207
aVsign sandiego apartmentcomplex carmelvalley
p208
aVsandiego apartmentcomplex carmelvalley
p209
aVflow sacramento apartmentcomplex
p210
aVrescu dog boy kid puppy thailand can aqueduc tha brav hero bravery cour klong
p211
aVhors ny racetrack track aqueduc dirt april velasquez thoroughbr zito allow smartstrik strikingtomisue
p212
aVny aqueduc thoroughbr winnerscirc racehors nobizlikeshob thefinesthors woodmem
p213
aVhors hors anim sport interest belmont animallov favorit best aqueduc jockey horserac athlet thoroughbr bestofthebest 2007 belmontpark mostview rems belmontstak nyr breederscup billmot horseracinghalloffam courtvid
p214
aVrescu dog boy kid puppy thailand can aqueduc tha brav hero bravery cour klong
p215
aVhors hors ny newyork aqueduc horserac 2008 racehors corneliovelasquez woodmem warpass derbyprep
p216
aVston architect turkey rock rom turkiy masonry aqueduc mersin silifk stonemasonry romanarchitect olb
p217
aVisrael aqueduc caesare \u05e7\u05d9\u05e1\u05e8\u05d9\u05d4 haib aplusphoto
p218
aVlif new york city nyc newyorkc ny newyork build tow clock manhat broadway aqueduc libraryofcongress metropolit shaft metropolitanlifebuild xmlns:dc=httppurlorgdcelements11 dc:identifier=httphdllocgovlocpnpggbain09576
p219
aVoc sea cliff colo nat rock ston coast iceland rainbow arch forc spray vik kap dyrholaey geographicallandform
p220
aVmexico cabo san arch luca arco breathtak elarco blueribbonwin 50faves 35faves 25faves mywin excapt betterthangood bachspicsgallery internationalgeograph mailcil spiritofphotograph
p221
aVcaliforn pink sunset us beach nat northerncaliforn landscap sand rock surf wav arch cov scout pebbl expl mus sonomacounty bluff russianr seastack seastack feb23 goatrock interestingness5 charleneburg beachpebbl specland 1on1landscape stormygirl 123faves blindbeach 25faves 123landscape abigfav stormysbeach sonomacoastlin flickrgold brillianteyejewel highestposition6onwednesdayjuly42007
p222
aVtravel sea col beach nat cor ston landscap island sand arch philippin nor port bat sabtang nakabuang
p223
aVwint bench bravo frost arch seat soe themoulinroug golddragon abigfav aplusphoto goldenphotograph diamondclassphotograph theunforgettablepict larsvandego
p224
aVpark sunset us utah arch arch nat del naturesfinest golddragon aplusphoto superbmasterpiec platinumheartaward
p225
aVbridg tow night manchest hotel interest arch slow top hilton expl shut 20 hulm beetham interestingness303 interestingness357 i500 25thmay07 mojo74 top20manchester
p226
aVutah sandston arch erod hdr esc devilsgard
p227
aVpark sunset cloud utah sandston arch arch nat del desrt pp31
p228
aVbridg blu sky architect cloud digit sunr geotag rebel xt raw islam eid egypt mosqu cairo singl personalfavorit bec digitalrebelxt masjid noor 6th lightroom photogallery alno flickrexpl 6october ultimateshot superbmasterpiec korayem geo:lat=30075992 geo:lon=31283762
p229
aVpink flow light red sum plant whit hous tre green hom portug window col leav architect outdo photograph flor afternoon extery season bright detail clar nobody foly simpl algarv typ botany albufeir bala flickrsbest abigfav balaiagolfvil impressedbeauty favoritegard flickrdiamond fiveflickrfav
p230
aVsunset sky sculpt architect riv thailand templ boat nikon wor bangkok buddh buddh relig d2x tha wat watarun hdr arun famousbuild d2xs
p231
aVnyc newyorkc longexpos blu us build skylin architect brooklyn night geotag photograph tv interest dusk manhat east filmmak soe filmproduc magicho scout filmloc locationscout locationscout nikond200 filmscout nyloc samrohn geo:lat=40703286 geo:lon=73995323 filmscout
p232
aVpar frant tre nat architect nikon bravo searchthebest qual branch eiffeltow magicdonkey instantfav d80 outstandingshot contrust abigfav bonz flickrplatin bratansworldto explorekinggroupbyvalerio
p233
aVchimney hous tow art class architect fent interest iron art spirit dec ghost goth haunt creepy spooky expl orn bristolct federalhil hauntedh craftm i500 ita superapl aplusphoto xstormyx amazingam castlelargo joelcas hahadatebelowfridaythe13th thatisisdatereplac stillcool proudshop magicdonkeysbest
p234
aVbear red 3 me saint anim st bal mam zoo lou 500v20f play minolt stlouis arct polarbear redbal 5d konic pol saintlou stl maxx northpol 10del 09sav
p235
aVsea sum wat norway boat europ searchthebest arct tan fiord finnmark naturesfinest flickrsbest worldbest anawesomeshot aplusphoto superbmasterpiec travelerphoto diamondclassphotograph flickrdiamond excellentphotographeraward flickrelit onlythebest thegoldenmermaid elyse
p236
aVtre wint whit snow cold tre norway riv octob arct birch tan breathtak finnmark superapl aplusphoto diamondclassphotograph flickrdiamond elyse
p237
aVwint industry ic train is vint fact pentax swed steel swed arct locomot sverig hdr patrik lok industr norrbot engm k10d pentaxk10d ssab llovemyp
p238
aVnewyork faun arct polarbear bronxzoo antarct
p239
aVsky man reflect film wat cloud landscap coast boat wak shorelin arct shor coastlin nunavut motorbo bathurstinlet
p240
aVpol bear wild arct anim snow ic wildl nat
p241
aVreflect ic wat reflect pap toy boat model arct iceberg iceberg themoulinroug abigfav superbmasterpiec
p242
aVoc sea snow canad ic island arct baffin canadianarct
p243
aVlif lightpaint berlin art digit comput notebook pc europ europ view kunst internet tunnel virt paintingwithlight oneway pank kryst 2007 komput lichtmalere unr multivers pankaesthetik photosynthes depend photosynthes spselection specobject malenmitlicht creativeshotinvit anawesomeshot thereareuntoldthousandswaysandpossiblefut itisourdecid
p244
aVtre light red sky sun sunlight col colo tre art lov nat col cloud landscap landscap nikon bravo heav poetry colo dark spirit mag nat flam fantasy zen soul myst karm poem bec univers emot themoulinroug naturesfinest blueribbonwin supershot anawesomeshot goldstaraward fdream llovemyp
p245
aVhors hist canon soldy army washington war uniform milit un group battl conf civilw artillery biggest man calv the canon30d
p246
aVpark sunset sun hist field nationalpark pennsylvan cannon artillery valleyforg
p247
aVhors hors caballo chev wwi worldwar worldwaron artillery westernfront ww1 cavallo cavalo pferd worldwar1 paard drafthors weltkrieg rfa royalfieldartillery vintagephotograph thegreatw 2nddivision thewartoendallw lagrandeguer artilleryhors lightdrafthors 47thbty 47thbattery 2nddiv ersteweltkrieg
p248
aVblu dog silhouet spring nikon act fineart boxerdog box athlet blueribbonwin blacknblu thelittledoglaugh naturessilhouet
p249
aVblu autumn red sea sky tre wat grass island greek moss rock mediter greec dirt bark cret twig abigfav aplusphoto goldenphotograph superheart tygerlyl
p250
aVpark autumn tre wint tre riv spring fdsflickrtoys colo season hometown firsttheear
p251
aVautumn tre red col colo green fal nat leav yellow forest landscap geotag leaf bravo col path herbst nat openair naturesfinest blueribbonwin supershot outstandingshot abigfav superapl aplusphoto 200750plusfaves thegoldenmermaid alemdagqualityonlyclub
p252
aVautumn tre fal grass nikon bravo searchthebest hil expl soe naturesfinest d40 supershot magicdonkey interestingness69 flickrsbest cy2 challengeyouwin abigfav challengeyounin anawesomeshot impressedbeauty aplusphoto superbmasterpiec goldenphotograph diamondclassphotograph megashot bratanesqu superheart theunforgettablepict photofaceoffwin photofaceoffplatin a3b theperfectphotograph friendlychalleng
p253
aVautumn wint cold tre fal hoj arbol leaf lyr branch invierno frio cling rama caer lacrimos xav aferrars haltmich
p254
aVautumn tre ita col tre fal leav gard landscap piemont autunno alessandr a1f1 abigfav p1f1 emmedibi33 superapl aplusphoto
p255
aVautumn mist snow tre finland photo 500v20f topv3333 topf100 tamp novideo 3ofakind cotcmostfavorit interestingness26 i500 30faves30comments300views topofthefog aplusphoto treesubject superheart
p256
aVautumn sunset hors hors fal field canon searchthebest indian 500v50f yourprid jaycountyindian specn jaycounty mywin abigfav shieldofexcel explorep1 impressedbeauty ininterest
p257
aVroad blu autumn wint friend red orang plant col colo reflect tre green fal nat beauty beauty yellow jap gard way landscap templ gold gold pond flor kyoto \u4eac\u90fd \u65e5\u672c \u7d05\u8449 \u79cb \u91d1\u95a3\u5bfa \u65c5\u886c kinkakuj breathtak themoulinroug \u5ead\u5712 naturesfinest \u7fae \u9ec4\u91d1 \u5b17\u5c71 \u9e7f\u82d1\u5bfa specn 35faves anawesomeshot colorphotoaward favoritegard superbmasterpiec diamondclassphotograph flickrdiamond citrit theperfectphotograph photosexpl picturesofjapanlandscap
p258
aVautumn wat leav leaf bravo colo detail flo surfacetend 50mmf18ii mg0763
p259
aVautumn canad fal nat vancouv ilov leaf mapl fuj sad season britishcolumb erich canad harvey mapleleaf erichharvey kakadoocho
p260
aVautumn macro reflect ey squ can leaf bravo searchthebest bokeh qual flo 2006 jud judi soe squ interestingness2 meskil judithmeskil firstq explorep magicdonkey instantfav outstandingshot mywin abigfav artlibr flickrgold 30faves30comments300views anawesomeshot highestposition2onsaturdaynovember252006 magicdonkey25 50faves50comments500views bppslideshow judeonflickr
p261
aVautumn england tre leav leaf oak topf50 topv555 bravo qual topv1111 chiltern topv999 expl topv777 algo topf100 interestingness6 magicdonkey instantfav explore6
p262
aVautumn macro fal topf25 wat wow droplet leaf oneleaf topf50 topv555 topv333 topf75 photoshop topv1111 curv topv999 expl topv777 wendycard 30faves30comments300views
p263
aVlif leic autumn light 50mm bokeh f10 momij japanesemapl kob rokko noctilux transp tint m7 rvp fujivelv ting inl leicanoctilux50mmf10 bokehwh tingedwithr
p264
aVcity blu sky build car chevrolet car photoshop truck canon eo automobl ev chevy am kuwait auto canoneo hdr photoshopcs2 automobl kuwaitc q8 carphoto carphotograph avalanch artphoto canonef24105f4l gtm americanc carphoto canonefl photomatix imagest q80 canonl oldhospit ef24105 canonef24105f4lis aplusphoto kuwaitphoto kuwaitphoto canoneos40d canon40d kuwaitc kvwc kuwaitartphoto gtmq8 kuwaitart kuwaitvoluntaryworkc kuwaitvwc grendizer99 hyperdynamicrang kuwaitsunset kuwaitphotograph grendizer99photos theamericanhospit
p265
aVsign switzerland avalanch
p266
aVmountain snow alp avalanch seattlest may5
p267
aVcaliforn bear us baby publ giant zoo cub pand sandiego bear zhen precy fv10 debut panda endangeredspecy blueribbonwin 7089 supershot 50faves zhenzh abigfav anawesomeshot impressedbeauty fcawin
p268
aVchin californ bear baby cut zoo cub pand sandiego bear chines fv10 sandiegozoo rar baiyun panda endangeredspecy sdzoo sulin abigfav
p269
aVcat look ey nat wow baby baby ipod cat felin felin nintendo xbox360 ps3 goodphoto fur kit kit nes sne toddl toddl beb
p270
aVchin californ bear 15fav baby tre stat giant zoo climb interest inf pand sandiego bear chines research specy endang panda sdzoo sulin scoreme37 ffac flickrphotoaward
p271
aVcaliforn hors hors baby beauty anim sandiego work moth colt hamlet clydesd clydesd foal
p272
aVwild cat baby cat kit stray binky fer catpeopl mamakitty cc800 cc400 cc300 abigfav
p273
aVlight trip vac portrait peopl selfportrait par frant cut tow car lov sign statu landscap geotag fun cool nic holiday europ flickr tour shadow ipod autoportrait emot weekend mem cre statu sunny eiffel tour backpack backpack arrow lov avenu miss jaim bonjo jetaim danorbit
p274
aVdog pet snow dog yorky hat smalldog backpack yorkshireterry pajama furkid dogcloth petfash mind petcloth dogpajama dressedupdog petpajama petclothesboot
p275
aVreveillon ey latinameric southameric bandeir landscap photo olh nikon foto offroad 4x4 flag web internet istockphoto favorit sur boliv flag vis backpack newyearsev favorita and fav d200 fav freerid gettyim altiplano mochil uyun aston flickraddict salardeuyun flickraddict nikond200 marcelopra aplusphoto evomoralez clubedopicapeiro plessman
p276
aVwint dog lak snow cold ic froz husky freez fluffy canin siberianhusky backpack icy pooch tonk frozenlak dogbackpack
p277
aVcaliforn bw dog rainbowgath hippy backpack backpack gath hippy rainbowfamil sfchronicle96hrs byloupiot
p278
aVoc trip travel vias blu sea 2 two cost naturalez beach nat az thailand boat bot coast mar sand nat travel sunny tailand play aren dos backpack shor tha barca backpack tonsa railay viajero longtail mochilero soleado longtailbo 5photosaday
p279
aVoc trip travel vias blu sea 2 two cost naturalez beach nat az thailand boat bot coast mar sand nat travel sunny tailand play aren dos backpack shor tha barca backpack tonsa railay viajero longtail mochilero soleado longtailbo 5photosaday
p280
aVoc trip travel vias blu sea naturalez nat az thailand boat mar barco nat travel sunny tailand sombr palmera palmt backpack shad tha krab kayak backpack tonsa railay viajero mochilero soleado longtailbo 5photosaday
p281
aVsunset sea flow beach beer silhouet fij boat fish fisherm suv banan palmt hammock pawpaw mangobay backpack friartuck traditionald
p282
aVtravel peopl sign night thailand as neon bangkok touristy ghetto crowd backpack khaosanroad
p283
aVcity longexpos window toronto build tow skylin night skyscrap dark light ev downtown glow cityscap balcony horizon spir penth 1785mm height youcanttakepicturesh highr flyingdutch canoneos400d digitalrebelxt toronto2007 49th50thfloor ~evidence~que
p284
aVdog pet balloon east ear abigfav impressedbeauty lmaoanimalphotoaward odietheeasterbunny helooksalittleblueinthisphotoliterallyithinkitsbecausethesunlightwascomingfromthesideoftheblueballoontriedtocorrectitbuticouldnt pet100
p285
aVblu red lak wat yellow balloon boat flag happyday volauv iamsmil greatsky 10faves hahahaa twowordwednesday paddlesteam switzerlandfr happycolo anawesomeshot diamondclassphotograph flickrdiamond leavingparad goodbyelutry goodbyelaclem nomoreboatcruisesonsundayafternoon justonelastlunchtripbeforeweleav butonekeepscomingbackformorewhenitwasthatgood withthesewordsigivemyselfhopetoareturntothoseblessedshoressometimeswhenev takenonthecgndaypaddlesteamerparade2007 poembyrobynsarah dontknowwhetheritsasarahorarobyn butthepoemiswonderfulithought herohusbandthinksthatiamtoomelodram littledoesheknow icouldsayalotm ontheotherhandweshallliveinaverybeautifulandcosyhousewewilldrinklovelyfrenchwineseverydayandeatloadsoffrenchcheesewewillcomebacktoswitzerlandoftentovisitallourbelovedfriendsandbestofitwewillbetogethero thereforeitsnottoobadisntit ionlywishitwasabitlaterandeverythingwasalreadypackedupmovedaboutunpackedputattheirrightfulplacethatthesunisshiningandthaticouldsitinthegardenwithmycameraandagoodbook gotyoutheredidntiiamsureyouthoughtidsaywithaglassofwin happinessinducingphoto anothersteamerinthebackgroundwaitingtotakeusback
p286
aVautumn wat leav yellow trekk riv bank greec parnasso potofgold phosphoresc naturesfinest plat supershot centralgreec aplusphoto trekkingpa plat theunforgettablepict theunforgettablepict platinumheartaward riversbank phosphorescentyellow flickrestrella qualitypixel inspiredbyhim llovemyp natureandnothingels phosphorescentyellowleav agoriann
p287
aVstreet newyorkc urb newyork reflect tow window col night skyscrap light mir ev trafficlight twilight col skyscrap manhat tow bank reflect nighttim nocturn bloombergbuild bloombergtow themoulinroug artisticexpress cherryontop fineartphoto mywin artlibr colorphotoaward diamondclassphotograph flickrdiamond artnwine1 betterthangood bestoneframeshortnomin
p288
aVblu sky cloud toronto canad reflect build tow glass skyscrap off roy bank highr aplusphoto
p289
aVwindow hat stat train roc read wait taiw bank monk buddh nonluogh nonplac nonlieux themetrain
p290
aVwood autumn red orang brown black green rot yellow d50 bench leaf mapl nikon herbst bank gelb handheld braun blat holz bernd schwarz gru freihand ahorn root2 abigfav sigma1770mmf2845 offenblend maximumapert
p291
aVblu sky cloud build tow window glass skyscrap off bank highr abigfav
p292
aVchin road light hous build tow clock architect night build geotag shangha colon styl bank illumin east hong kong govern hist \u4e2d\u56fd \u4e2a\u6d77 \u5916\u6ee9 bund zhongsh custom wait supershot platinumphoto amazingam theperfectphotograph goldstaraward hccity \u4e2d\u5c71\u4e1c\u4e00\u8def geo:lat=31237646 geo:lon=121486334
p293
aVsunset england sc can bravo surrey barg narrowbo barg riverwey interestingness2 pyrford newarknewbridg newarklock
p294
aVchin sunset west geotag boat hongkong harb boat ship waterfront harbo cran district ship pol victor hong kong promenad \u4e2d\u56fd \u9999\u6e2f kowloon soe barg cult barg golddragon overtheexcel geo:lat=22300249 geo:lon=114154386
p295
aVwat marin boat kent olymp barg hdr clip gravesend e410
p296
aVshow abov longexpos party urb us holiday build tow rooftop col fest skylin night mi americ work build dark fest fir freedom apert long expos downtown view shot nightshot firework michig detroit firework aer fromabov celebr am flar target work fourthofju mich eaton rocket riverfront launch july4th independ july4 fest celebr barg brod explod explod bldg det dens urbanskylin broderick detroitmichig downtowndetroit bldgs brodericktow year eatontow davidbrodericktow urbannightshot june28 detroitfirework 4thofjulyfireworks davidbroderick moton urbandens 48226 june282006 targetfirework freedomfesitv detroitriverfrotn americanindepend urbanameric
p297
aVwood blu sky wat cloud scotland dock edinburgh pentax expl lei freehand barg hdr wateroflei thesh photomatixpro 5xp k10d pentaxk10d
p298
aVshow abov longexpos party urb us holiday build tow rooftop col fest skylin night mi americ work build dark fest fir freedom apert long expos downtown view shot nightshot firework michig detroit firework aer fromabov celebr am flar target work fourthofju mich eaton rocket riverfront launch july4th independ july4 fest celebr barg brod explod explod bldg det dens urbanskylin broderick detroitmichig downtowndetroit bldgs brodericktow year eatontow davidbrodericktow urbannightshot june28 detroitfirework 4thofjulyfireworks davidbroderick moton urbandens 48226 june282006 targetfirework freedomfesitv detroitriverfrotn americanindepend urbanameric
p299
aVhous holland netherland port puerto boat barc barco harbo nederland eu nav holand pold casa palo barg cas 2007 waterland lowcountry vaixel monnickendam paisesbajo
p300
aVwood old travel blu vac hav look cloud relax boat island photograph coast boat photo seasid stil fish commun nikon wav mood ski getaway background pier ship philippin feel gray bor rusty cargo boredom bor standby coast boardwalk backdrop wat rippl lax slack oc idyl moor heav tilt somb barg crusty hdr stay visualart scen sea causeway vessel refug stockphoto fishingcommun conceiv jetty vast lookandfeel moor stockphotograph travelphotograph creativephoto digitalimagery nikond40x philippinephotograph cebuphotographyclub coastallin coastalsea
p301
aVbridg bus london ey tow westminst westminsterabbey tham boat pol londoney parlia bigb southbank hungerford barg royalfestivalhal ststephens waterloobridg
p302
aVkewgard topv111 kew gard tham riv boat mud tid barg narrowbo davenham
p303
aVport lumix fz20 boat can panason reflet barg morg canaldumid ramonvil lepl portsud
p304
aVblu red sea sum peopl whit blanco nat az boat roug amaz spain rojo nikon espanh d70 blu gre natur barch bleu espan galic lowtid rosso bianco barg spagn riasbaixa alpin riasbaja smallbo mareabaj galiz bassamare
p305
aVwat boat can tunnel barg narrowbo prestonbrook
p306
aVsil me beer myself cisco coron clon argu barrack memyself coronaextr cisnero thebiggestgroup coronacervez milesawayfromordin gotlim ciscokid71 lamasfin scenicsnotjustlandscap ~wevegotthepower~ blueparrotclub youmakeitwhatit
p307
aVjefferson barrack nat cemetery scout boy girl mem day 2007 flag ceremony lucisart hdr jdl orton st saint lou missour
p308
aVdog dog dawg silv funny basebal cap box rap i10 shizzl rap fo dog 2007 representin baseballcap yoyoyo interestingness6 i500 explorefrontp i100 outstandingshot anawesomeshot impressedbeauty kibblez lmaoanimalphotoaward lunarvil photofaceoffwin
p309
aVpuppy jackrussel dog canin kodak georg basket pos pup puppy mix mischief lit sweet angel angel nap mom heavy sist broth sibl fac fac paw claw doggy dog mask mask beagl mut mut heinz57 bree canedalepr briquet perrito chiot kra05 mostfavorit
p310
aVgeorg basket sleep mainecoon 2007 fastc creamsic kissablek oreeng bestofc thefuzzyonez
p311
aVcat photomanip kat chat basket ol gimp digitalpaint gato katz gatto gatt picnik enh supershot fineartphoto bestofc impressedbeauty superbmasterpiec colourartaward platinumheartaward boc0608 donnacleveland
p312
aVflow dog goldenretriev gard happy gold friend basket hond retriev hachiko
p313
aVcat basket canon50mm naturesfinest fritzy anawesomeshot infinestyl canoneos40d haveagreatweekenddearandre httpwwwandreakamalde
p314
aVrescu pet anim fem vancouv cat washington felin basket tabby stray keiko 9yearsold sb800 studiolight bestofc nikkor1755mm impressedbeauty january2008 nikond300
p315
aVorang whit cut cat ging ey furry kat chat basket straw fluffy 2006 gato juny katz
p316
aVcaliforn ca blu sky us cloud southwest tow basketbal photoshop resta la losangel los airport nikon control angel icon profess soc nat airlin kri playoff lax 2008 nba hdr 08 assocy cs3 photomatix d40 kro kriskro kk2k goldenphotograph diamondclassphotograph theperfectphotograph
p317
aVstrange basketbal photoshop weird topv333 desk sur laptop sur magrit screen monit od photomont mostinterest unus od
p318
aVred dog whit black cat catwom bathroom pov tabby pit bul terry henry otto apbt
p319
aVbear wild fish nat stream salmon juneau fee blackbear sockey naturesfinest wintercov supershot fat specanim summerinalask naturewatch
p320
aVbear kid childr toy toy teddy smal felt plush plushy softy teddybear greco lizet lizettegreco bunnybear grecolaborativo
p321
aVdog bear akit tongu nos chein
p322
aVbear chihuahu sil tongu puppy
p323
aVbear whit cre zoo funny 500v20f minolt hum hideandseek polarbear laugh 5d konic pol maxx 1000v40f timothykhamilton creativitypl
p324
aVbear cut anim anim topv111 zoo washingtondc smithson washington lenstag topv555 topv333 nikon 2006 100v10f tai nationalzoo endang d200 shan nikk giantpand fonz washdc pandabear taish 80400mmf4556dvr natlzoo nikond200 nikograph washingtondistrictofcolumb hisroyalcut usnationalzoo nikographerjon
p325
aVbear anim tag3 taggedout mam zoo nc tag2 tag1 nor polarbear carolin pol nczoo wil 2007 ursusmaritim naturesfinest supershot missedthet ucumar avisittothezoo animalkingdomelit ucumariphotograph impressedbeauty superbmasterpiec itsazoooutth
p326
aVbear apert raw blackbear 2007 myeverydayl canoneos5d canonef300mmf4lisusm
p327
aVbear anim anim giant zoo washingtondc smithson washington nikon pand 2006 nationalzoo giantpand fonz washdc meixiang taish natlzoo nikograph 11052006 giantpandabear animalkingdomelit usnationalzoo 20061105d20032025 nikographerjon
p328
aVbear jap mascot odawar kanagaw relakkum rirakkum
p329
aVbear pand bear tai nationalzoo giantpand panda pandabear taish giantpanda pandabear ailuropodamelanoleuc butterstick supershot animaladdict abigfav isawyoufirst diamondclassphotograph superheart fcawin
p330
aVbear park whit black anim anim smithson dc washington pand bear tian tai nat nationalzoo endang mei shan fonz xiang panda tiant meixiang taish zoolog butterstick pandasunlimit thebiggestgroup abigfav snzp colorphotoaward holidaysvacanzeurlaub fcawin
p331
aVbear red green anim anim topv111 geotag zoo washingtondc smithson washington lenstag ey topv333 nikon pand ear 2006 100v10f whisk redpand nationalzoo d200 nikk fonz washdc 80400mmf4556dvr natlzoo nikond200 nikograph 06032006 redpandabear washingtondistrictofcolumb usnationalzoo nikographerjon
p332
aVbear blu tre red orang us dog brown black green bird anim kid dang cat scarlet fur zoo monkey fly oak ey col eagl fierc bokeh michig vibr wildl tee tig detroit beak feath bald roy peacock sup sharp ib telephoto bark kangaroo chimpanz prairy pol macaw parrot sanctu chimp talon canon30d canonef400mmf56lusm
p333
aVbear brown zoo britain hunt bedfordshir 2008 euras whipsnad whipsnadezoo brownbear threatenedspecies subspecy iucn redl zsl extermin eurasianbrownbear 450d animalkingdomelit zoologicalsocietyoflondon aplusphoto diamondclassphotograph leastconcern animalexcel ursosarctosarcto
p334
aVbear toy stuff teddy bear teddybear stuffedanim d40
p335
aVchin californ bear us anim giant cub pand sandiego panda endangeredspecy 9378 sulin goldaward youlookinatm golddragon animalkingdomelit abigfav goldwildl dragongoldaward
p336
aVbear park whit black anim anim smithson dc washington pand bear tian nat nationalzoo endang fonz panda zoolog pandasunlimit thebiggestgroup tiantain snzp
p337
aVbear pand craig nationalzoo giantpand pandabear pandacub taish ailuropodamelanoleuc pandasunlimit simbaon17th craigsalva
p338
aVpark wild portrait bal cat ind whit nat anim faun cat indones lumix zoo wildl tig sup panoram panason exot endang beng whitetig ubud superc exoticanim exoticc fpc giany endangeredanim tropical abigfav platinumphoto diamondclassphotograph flickrdiamond fz8 dmcfz8 panasoniclumixdmcfz8 onephotoweeklycontest goldstaraward balisafarypark
p339
aVwild macro anim cat fur dang ey clos fierc stripes tee tig safar angry star fang growl beng striped snarl dead workshop chrisweston nikonstunninggallery wildlifeheritagefound twip twipanim
p340
aVpark wild bal cat ind whit nat anim faun cat indones lumix zoo wildl tig sup panoram panason exot endang beng whitetig ubud superc exoticanim exoticc giany endangeredanim tropical animaladdict fz8 dmcfz8 panasoniclumixdmcfz8 balisafarypark
p341
aVtig beng parkstock specanim impressedbeauty
p342
aVwhit beng jest westmidlandssafaripark sypix tog
p343
aVwhit tig odin beng sixflagsdiscoverykingdom photobyjeffrayn
p344
aVanim digit cat canon thailand eo zoo bangkok wildl tig dslr beng 30d dusit specanim animalkingdomelit ef70200f28lis
p345
aVzoo tig austral beng bengaltig anawesomeshot auselit
p346
aVstreet window bicyc sign hair topf50 mont spok storefront hairsalon haircut topf100 knot shopfront knotty bikest interestingness40 blackmark rueamherst lesbianhaircut
p347
aVchin beid city wangfus street road peopl traff cab tax car bus bik bicyc cyc shop progress touch urfavsdailyl creamofthecropmyfav top20favorites urfavsmodern topv111
p348
aVsign warn no bicyc bikecult
p349
aVsunset sun bird cloud ilov fly interest bravo albalumin seagul gul ding oneyear natureslight
p350
aVbird bird urban migr warbl birdwatch rockfordillino ovenbird cnp winnebagocounty seiurusaurocapill urbannatureblog callawaynaturepreserv avianexcel bestnaturetnc07 birdlifejamaic
p351
aVpink red bird bird 1025fav scarlet catchycol zoo savem deleteme10 bronx gorg bronxzoo aqu itsongselection1 describ scarletib detail itsong\u2013canoneos300d itsong\u2013adayatthezoo interestingness423 i500 explore19may05 animalkingdomelit
p352
aVafric bird 20d nat bird canon bravo keny qual wildl safar expl tsavo guineafowl vulturineguineafowl pgphotography magicdonkey edgarthiss 11501 outstandingshot specanim animalkingdomelit abigfav anawesomeshot supremeanimalphoto impressedbeauty superapl aplusphoto flickrplatin avianexcel
p353
aVred germantown nat bird tag3 ilov outdo tag2 tag1 cardin wildl av wi magicdonkey 1on1halloffame specanim flickrgold colorphotoaward
p354
aVbird bravo coupl pigeon pair feath fant jakigood redey specn specanim animalkingdomelit abigfav victoriancrownedpigeon avianexcel
p355
aVred snow germantown nat bird ilov outdo cardin wildl av
p356
aVtre bird bird ilov japanes mapl qual indian expl nut titm tuft helluv outstandingshot specanim animalkingdomelit mywin abigfav supremeanimalphoto impressedbeauty flickrplatin
p357
aVbird bird soe hornedlark flyingbird eremophilaalpest supershot specn abigfav abigfav explore224 impressedbeauty
p358
aVlif bird lov nat bird anim zoo peac heart qual awesom av pel animalplanet oiseau vie \u591a\u6469\u52d5\u7269\u516c\u5712 tamazoo avianexcel
p359
aVsea pel bird venezuel div div pel tuffo losroqu naturesfinest blueribbonwin pellicano supershot pellican 10faves 35faves stratoblaster 25faves anawesomeshot impressedbeauty superapl aplusphoto superbmasterpiec naturewatch nginationalgeographicbyitalianpeopl
p360
aVbw hors black canon act mov dash rush canon5d burst 70200 cant gallop 200mm anawesomeshot impressedbeauty flickrdiamond karmawillarrivetocollectcod wewantapplehung wwwxmshu httpxmshu
p361
aVred hors snow black cold car cool ferrar rid fav horserid mashallah equest wowurthebestwallah mbd3
p362
aVold railroad arizon black phoenix muse cloud train vint silv rust cloudy gray track engin rusty rail railway hist steam rust locomot chandl traintrack railf hdr railfan photomatix 200702 mywin diamondclassphotograph
p363
aVblu sea sky green beauty cloud boat island interest yacht cru peac expl carib stmaarten hdr cfg abigfav
p364
aVcanad build wat vancouv boat nikon downtown britishcolumb d2x boat hdr aquab waterbody d2xs
p365
aVsunset sky cloud green nat wat grass riv landscap boat boat serb danub donau vojvodin srbija mitj dunav miodr bogdanov apatin worldthroughl worldthroughlenscom beautifuldanub utata:project=colorexperiment
p366
aVvac col wat marin boat atl yacht bahama hdr wowiekazowy
p367
aVfilm build reflect boat interest iso400 pier philippin manil fujifilm yacht expir bay vivit manilabay harb dragonbo superiaxtr ultrawideslim harboursqu
p368
aVsunset fab marin boat istanb soe naturesfinest firstq flickrsbest golddragon mywin abigfav platinumphoto anawesomeshot impressedbeauty ultimateshot diamondclassphotograph flickrdiamond theunforgettablepict onlythebest thatsclassy saariy overtheexcel goldstaraward worldwidelandscap damniwishidtakenth poseidonsd
p369
aVdawn sunr mist fog weath wat lak winderm boat reflect sep light grain mono monochrom bw goldenphotograph shadow duck cumbr england film ilford 400asa blackandwhit holidaysvacanzeurlaub dark bravo anawesomeshot searchthebest supershot excapt theperfectphotogaph aplusphoto superapl megashot monochrom favemegroup6 magicdonkey theroadtoheav picswithfram geot geotag
p370
aVcol wat marin sunr reflect boat nikon soe 1224mm hdr marinadelrey d80 abigfav nikond80 impressedbeauty smgallery betterthangood
p371
aVwat squ point boat wrap row quay lin shor paint oar straightfromcamera skiff abigfav aplusphoto
p372
aVsun boat martin carib rais aphoto abigfav aplusphoto
p373
aVcanad sunr boat fish novascot soe westberlin masterclass d300 blueribbonwin lifeasiseeit 18200vr abigfav platinumphoto aplusphoto superbmasterpiec diamondclassphotograph flickrdiamond betterthangood goldstaraward llovemyp showmeyourqualitypixel
p374
aVsilhouet reflect boat bravo greec reflect nafplio abigfav aplusphoto diamondclassphotograph flickrdiamond platinumheartaward goldstaraward peachofashot
p375
aVcanad wat boat boat sand parad quebec soe blueribbonwin supershot abigfav cans2 diamondclassphotograph
p376
aVwed hors lov beauty vint photograph groom brid coupl rel prairy embrac connect redleafstudio
p377
aVsanfrancisco californ bridg sky car cloud bravo driv chas supershot magicdonkey abigfav cherishlovespink anawesomeshot
p378
aVrailroad bridg light spee train d50 len nikon czech rail railway most express lighttrail hdr jicin vlak svetlo zelezn rychlik 30faves30comments300views
p379
aV2005 us dog appl stat work comput macintosh mous toy star us newspap washington starw mac keyboard ipod phon unitedst col drink desk scan buddh cok buddh unfound itun can pop millenn monit zen falcon bellingham wa xwing lam sod war cocacol coc herald dalailam workdesk whatcom millenniumfalcon davewardsmaragd zencast pss:opd=1133043542
p380
aVprint post design graphicdesign democr support graph burm buddh ral protest fre peac demonst myanm junt act defy defy dict aungsansuuky
p381
aVtre snow build car eo swed stockholm vivid sverig 2008 hdr kaj vasast cs3 blueribbonwin photomatix 40d theperfectphotograph bjurm
p382
aVwint hors hors whit film dan anim topv111 canon wow ilov outdo cow topv555 topv333 cow deleteme10 topv1111 topv999 topv444 dry bul topv222 topv777 topv666 topv888 eos300v koolskatk
p383
aVtravel santiago hors canon caballo spain bravo track fiest camino firework path july fer fiesta bul toro hemingway 2008 bullfight pilgrim pilgrim pamplon caminodesantiago navar fuego peregrino 2007 reino navarr cohet runningofthebul gig compostel g7 tauromaqu runnig encierro nafarro baltas sanfermin rejonead chupinazo estoqu eljul 7dejulio xgivemef taurino canong7 reynodenavarr fotogu europespa waytosantiago chemindesaintjacquesdecompostel fotoguid sanferminesflickr
p384
aVstreet bridg blu school red sky ir bus car wet publ lin rain yellow cloud light pub traff transport chines doubl junct up mk2 serv takeaway rain hdr westmidland walsal mki metrob mcw lucisart luc tonemap ablewel
p385
aVpark street parqu autumn window red naturalez bus tre green fal car nat argentin grass leav photoshop fun arbol outdo grand cal big rojo garb buenosair colorado funny arbol extery vivid can pasto carro park twost coolest colectivo myfav omnib cesp guagu fuer divertido otono gracioso basurero photomatix supershot abigfav impressedbeauty superbmasterpiec thediamondclassphotograph citrit excellentphotograph dospiso colourartaward popotito
p386
aVroad street city blu peopl ita streets bus car ford car yellow az way torino nikon strada ital d70 crash accid blu city tram 321 via accid bleu piemont giallo road turin macchin strade piedmont way vie alpin incid numerouno macchin gtt incident scontro thecontinu 2for2 scontr
p387
aVdesktop blu red wallpap us whit americ star freedom us democr washington bush unitedst background stripes flag wav unfound patriot bellingham wa flap vot patriot wav flap vot vot whatcom
p388
aVlas vega us americ bay bush unit cub crimin crim ter stat guantanamo
p389
aVroad bridg sunset peopl sunlight car walk coast scotland cross motorway suspend sou nor perspect structure for cabl tol febru 2008 fir queensferry lorry betterthangood
p390
aVblu sky canad lin sign vancouv pattern bc arty streetlamps britishcolumb stickm perspect pedest cabl repetit stickfig unus cloudless dist obt
p391
aVerik ibook coff wif caf grandrapid sweetw
p392
aVhors photoshop cow bravo cowboy post rop 64 process kri calf 2008 challeng hdr pinoy pp lasso cs3 photomatix kro kriskro 1xp kk2k kodakero pkchallenge
p393
aVafric wildl zebr calf
p394
aVchin travel sky hors lak snow mountain wow ilov xinjiang \u65b0\u7586 karak camel tranquil travel nomad tashkurg onephotoweeklycontest
p395
aVcamer wint hors hors snow canad nat anim landscap nos photograph interest scout expl vancouverisland field exploreinterest nos moulinroug smorgasbord themoulinroug nuzzl supershot interestingness220 i500 3waychallenge mywin 3waychallengewinner impressedbeauty flickrenvy superbmasterpiec diamondclassphotograph flickrdiamond focusleg theperfectphotograph thegoldendream friendlychalleng duelwin friendlychallengeswin 2on2pairoftheweek 2on2pairoftheweekjanuary2008
p396
aVbridg pak train can engin rail railway steam locomot sindh steamengin irrig oldtrain mirpurkha jamrao beautifulpak
p397
aVcity uk greatbritain england urb snow streets london rain fog europ unitedkingdom capit tub londonunderground finchley northernlin eastfinchley n2 5photosaday
p398
aVcaliforn longexpos party england urb london car car jap night japanes light nightim nightlight shot nightshot calend wheel automot cov show nightshot can rim import mitsubish alloy gpx 2007 ric fletch fto whalf urbannightshot performancec japanesec longexposuresatnight canarywhalf dreamed ftooc wwwftoocorg impressedbeauty
p399
aVauto sanfrancisco californ street city car topf25 car automobl 10 motorcyc lamppost motorcyc park manhol manholecov sansom onebush onebushst onebushstreet fav10 fav25 sansomest carsand superfav
p400
aVblu class car chevrolet car vw photoshop canon eo automobl stingray am kuwait auto digitalrebel corvet canoneo hdr classicc automobl musclec salmiy chevroletcorvet q8 carphoto carphotograph artphoto chevycorvet gtm carphoto blueribbonwin photomatix imagest americanmusc 24105mm vwc classiccorvet q80 canonl xti bluechevy classicchevrolet 400d classicchevy eos400d canoneos400d digitalrebelxt canon400d canonef24105f4lis aplusphoto bluestingray kuwaitphoto kuwaitphoto kuwaitc kvwc excapt kuwaitartphoto gtmq8 kuwaitart kuwaitvoluntaryworkc kuwaitvwc bluecorvet grendizer99 hyperdynamicrang kuwaitphotograph grendizer99photos 1976corvettestingray corvettesingray chevystingray classicbluecorvet classicstingray americanchevy
p401
aVdog pet pet car dog car top20action jump jump nikond70s toyot beardy beardedcol beardy yar
p402
aVcar car canon photo taho kuwait q8 nawaf artphoto kwt usac vwc 400d kwtphoto superapl aplusphoto alsaleh kuwaitphoto nawafooo q8photo nawafphoto kvwc kuwaitartphoto kuwaitart q8car q8cars carsphoto q8hp wwwnawafphotocom nawafphotocom
p403
aVblu red col colo green car tox car yellow toy toy glow hotwheel sat mattel toyc monstertruckr anycolouryoulik sixsixsixclub explore262 toxiccol boldandbright impressedbeauty 205explore231106
p404
aVred reflect car col car canon reflect eo automobl niss kuwait auto digitalrebel canoneo hdr photoshopcs2 automobl maxim q8 redc artphoto coolc gtm nissanmaxim carphoto redc photomatix imagest 24105mm q80 japanesec canonl xti 400d eos400d canoneos400d digitalrebelxt canon400d aplusphoto kuwaitphoto kuwaitphoto kuwaitc kvwc kuwaitartphoto gtmq8 kuwaitart kuwaitvoluntaryworkc kuwaitvwc grendizer99 hyperdynamicrang kuwaitphotograph grendizer99photos redmaxim nissanhdr redniss
p405
aVcar car it europ transport alfaromeo automobl sportsc coup
p406
aVold car abandon car topv111 rust decay rusty austral decay longfl
p407
aVcol colo car col car toy toy colo matchbox 3ofakind 25faves abigfav aplusphoto flickrdiamond
p408
aVauto car beauty car spee photoshop canon germany interest ral janu fast convert f1 rac col enero turbo prototyp coch porsch nasc sasch aleman kart mot lebowsk velocidad boxst 2008 circuit needforspee coup superc kart schumacher hdr bellez racingc autodromo alem lohn granturismo conceptc deportivo porsche356 formulauno toc sportc h6 schnell fastandfury espectacul arteixo austrodaiml canon1855mm velocit berlin descapot car sped cartun racecircuit ferdinandporsch canoneos400d tocarac ferryporsch oseiro porscheboxstertechart llanta20 maffesdorf karlrab erwinkomend hdraward
p409
aVthanksg road car car wisconsin night long expos traff hil madison rush road beltlin taillight
p410
aVart car chevrolet car photomanip photoshop buick chevy fantasy luxury sportsc conceptc p1f1 fantasyc nixart
p411
aVblackandwhit bw car chevrolet beach car truck apach dun chevy infr hdr tonemap 123bw chevroletapach
p412
aVold car chevrolet car rust hol rusty chevy bullet
p413
aVengland car landrov hdr photomatix tthdr
p414
aVwint snow ny car car topv111 topv555 topv333 top20winter deleteme10 topv777 4seasons putnamcounty peekskillhollowroad top20abandonedautos
p415
aVroad whit car gulf ferrar kuwait lamborghin kuwait gallardo f430 gulfroad q8e ilkhalees
p416
aVsf californ ca bridg car topv111 fog gold bay gat san francisco traff expl goldengatebridg goldeng canons3
p417
aVsanfrancisco californ street travel hous car night nikon long expos sur d80
p418
aVurb chicago train crash accid el carcrash
p419
aVcar car racetrack rac rac swift suzuk febru 2008 motorsport motorrac drenth ass autosport carrac ttass ttcircuit racingpict dwe
p420
aVcat topf50 topv333 tabby gato neko top20catpix fofurasfelina toj tigrado ggg02
p421
aVreflect topv111 tag3 taggedout cat zoo blog topv555 topv333 bravo tag2 tag1 topv1111 tig topv999 topv5555 topv777 top10 favourit topv3333 marwel interestingness5 topva bigemrg specanim animalkingdomelit abigfav sep2006blog botopv0906 impressedbeauty frhwofavs
p422
aVcat topv111 jap cat comput tokyo pc nikon kit d70 desk kitty usm \u7b2b bos flo sigma1224mmf4556exdgasphsm
p423
aVcat anim anim cat kit kit
p424
aVcat d50 cub nikon tig am tigercub naturesfinest supershot philazoo specanim golddragon abigfav karmapotd theexhibit impressedbeauty diamondclassphotograph naturesbaby theperfectphotograph bestofanim goldstaraward
p425
aVcat nat cat ilov mous mau c9 cloudnin hp850 superbmasterpiec kittystormtroop world100f
p426
aVcat zoo tig sydney austral bigc canon350d sumatrantig wildc animalplanet tarongazoo parkstock 1000v40f outstandingshot animaladdict specanim animalkingdomelit abigfav specanimalbestshot 30faves30comments300views bestofanim
p427
aVpet smil anim cat ging felin fang unmanip gingerc standingc thebiggestgroupwithonlyc
p428
aVpet cat cat ia maggy il mybest gatt animal gatt ilarialucian
p429
aVsanfrancisco cat wat jump tig exhibit expl soe siberiantig tatian sanfranciscozoo shieldofexcel nikond40
p430
aV2005 cat anim anim topv111 cat geotag zoo washingtondc smithson dc washington topv555 topv333 nikon nikond70 tig d70s 100v10f bigc nationalzoo sumatrantig tigr bigc fonz washdc panther pantheratigr natlzoo nikograph pantheratigrissumatra washingtondistrictofcolumb sumatra usnationalzoo nikographerjon
p431
aVcat cat gatto gatt smokingpermit 35faves bestofc anawesomeshot superbmasterpiec platinumheartaward marian
p432
aVsign warn dea underw florid grim reap scub div springs cav
p433
aVtrain wow subway stockholm cav uggl fridhemspl nokian93
p434
aVdog dog comput tv ipod print laptop cellphon comput turnt commun entertain remot laptop microwav gadget remot playstation2 roomb print cellphon ricecook netgear vacuumc netpop
p435
aVsign cellphon cellphoneb nocellphonesinlin
p436
aVthailand flag tha fan facepaint che doh qat asiangam sepaktakraw asiad
p437
aVblu school girl boy stud wal comput penguin gentoo educ lab med technolog classroom room kde internet main teen comput cent class christian research lab linux learn network monit gre opensourc academy foss computerscy resourc k12 computerlab floss bas gnulinux academ freesoftw houlton ghca
p438
aVschool comput logo carpet penguin hardw gentoo educ lab med technolog op pcs chair classroom furnit room kde main fre comput equip softw lab linux learn network monit opensourc foss tux sourc computerscy resourc computerlab cli floss gnulinux freesoftw workst furn houlton ghca greaterhoultonchristianacademy torvaldsunix
p439
aVcaliforn sant ca school appl santabarbar comput macintosh photograph cool mac keyboard lab imac classroom institut barbar brook galley cot brooksinstitut
p440
aVschool art classroom jungl crayon bulletinboard el krylon crayol papermach animalprint 3dletters wildaboutart
p441
aVphotoshop manchest off flickr audy classroom project screen softw learn laptop teach show teach learn tut tut conferenceroom cs3 cheadlehulm deleg mrdayglo
p442
aVrailroad yard train engin rail brc locomot clear class freightyard humpyard beltrailwaycompanyofchicago
p443
aVrailroad chicago ic train engin rail brc locomot clear emd sd402 iowachicagoeastern
p444
aVwindow plan comput cockpit airb a380
p445
aVcolleg court stud stat desk room board dorm butl post keen bulletin macbookpro
p446
aVflow colleg chair furnit dorm eam steelcas apartmenttherapynewyork
p447
aVtunis tun flag ministryoffin ministeredesfin medin pill red northafric column placedugouvern
p448
aV2005 desktop comput huntington huntingtonunivers september2005 comput gateway 5000 windowsxp computerlab desktopcomput 5000views loewbren gatewaycomput huntingtonindian desktopcomput bigfix m2technology
p449
aV2005 old class appl vint comput macintosh driv hardw mac keyboard comput unfound screen os retro system monit macclass nostalg disk floppy nostalg operatingsystem 680x0 macintoshclass davewardsmaragd system6 system607
p450
aVportrait spee self work lab comput gam laptop 365 phon multitask task
p451
aVhom sketch off pc chair singap imac desk draw cellphon comput book ps panason study household leon mydesk 52 weekon paperwork myworkspac cornersofmyhom nicksdraw allaboutyou mynewmac citrit leonefabr macmonst firsttimeihaveusedaflash 52weeksaboutu oneof52 52wau2008wk11
p452
aVpeopl cat mac laptop comput mainecoon
p453
aVlight boy girl toy laptop comput discovery makebeliev utatatoy
p454
aVdesktop hom comput off desk comput screen monit stef workspac workst monit homeoff serv serv mult screens workst multiscreen multimonit didak stefandidak
p455
aVmac comput ibm linux t43 ubuntu kines macbookpro
p456
aVnew window comput notebook hp laptop duo review comput vist laptop review centrino nvid productreview
p457
aVgam pc princess room nintendo ds peach donkey comput mario doubl kong link gb daisy kart nes dual luig yosh screens nds sne gba n64 wario gbc wii
p458
aVmobl scotland comput ipaq
p459
aVimac awesom bas comput workshop pow panel beat firewir bigtrak cocacolaisthedevil
p460
aVhors sculpt appl statu cat comput macintosh mac imac desk buddh bear comput unfound monit cpu carm carmelit login sole davewardsmaragd
p461
aVblackandwhit black hom appl statu work off mac keyboard imac geek desk laptop lifestyl comput workst mightym technolog 20inch 15inch macbookpro
p462
aVfish appl wat mak aquar diy imac comput electron
p463
aVappl comput hardw comput laptop monit geekstuff multimonit
p464
aVappl comput mac comput
p465
aVwindow appl comput pc mac imac sad comput tragedy appl pervert bootcamp sham mac screens ohwel imac necessaryevil bigboysdiditranaway
p466
aVdesktop max nerd appl coff kid comput childr kid gnom ibook child op geek bass guit laptop sou kde deb amp comput jud violin spongebob linux zealot carolin laptop desktop rog hay opensourc bsd g3 foss geeky ubuntu sourc openbsd freebsd aik floss clamshel ppc powerpc oss nerdy kubuntu netbsd edubuntu xubuntu bx4210a
p467
aVcomput window linux appl macintosh ibook imac 2005 march deb
p468
aVwork geek comput system it panason datac rack fz30 dmcfz30
p469
aVstat train construct rock swed stockholm platform trainst constructionsit hdr rubbl centralst cent stockholmc 9xp
p470
aVworld travel sea wom fish tour girl cor swim swim thailand island island mar marin as chic underw snorkel wildl div tailand div vias turismo isla simil buceo viaj asy blueribbonwin miang supershot submarin bucear 10faves kosimil 25faves abigfav platinumphoto anawesomeshot impressedbeauty ultimateshot superbmasterpiec diamondclassphotograph flickrdiamond naturewatch elosoenperson goldstaraward komiang
p471
aVblu beauty topv111 cor 1025fav 510fav wow ilov topv555 topv333 underw turtl awesom scub fv5 pi malays wildanim 1224mmf4g fv10 d100 reef sipad animalplanet aquatic sipadanphotoweek anth pfo tvx impressedbeauty photofaceoffwin thegoldenmermaid
p472
aVsea fish wat cor underw snorkel redse egypt sharmelsheikh snorkel snorkel reef sharm tang coralreef anthia damself surgeonf naamabay sargeantmas rainbowwrass
p473
aVmacro topf25 cor underw dof scub div malays fv10 sipad sabah kapala
p474
aVpink orang bird cor zoo san flamingo feath diego cotcmostinterest superbmasterpiec diamondclassphotograph flickrdiamond californiazoo ourmasterpiec
p475
aVoc sea fab fish flow cor \u6d77 \u9b5a jeannysfoto excellentphotographeraward
p476
aVcor crochet reef freeform
p477
aVcor underw carib aqu reef
p478
aVlif afric sea fish uw nat wat cor digit mar photo nikon marin parad mar underw photo sub redse div egypt deep scub div coolpix 5200 aqu biolog rosso dep egitto pesc immersion bol corallo nat fotosub subacque wetpixel keyofl uderw underwaterp fondal fotosubacqu naturewatch coolestphotograph uderwaterphoto
p479
aVmacro cor underw strobist balanophyll
p480
aVoc lif blu sea brown green beach wat anim cor hawai marin underw head turtl reptil shel div mau snorkel reef cre flip abigfav
p481
aVblu whit hom cor vint intery myeverydayl top20white
p482
aVafric portrait ita wom mountain eleph mil art nig work paint tanzan mam star hotel cub it paint room milano room tig sud leon lion quadro leopard zebr oil work hotel pum ethiop serenget ran mam coug lio masa egitto ors tuareg coug himb rino quadr albergo donatell elepahnt leopard albergh savan dipint yourmasterpaint ribezzo
p483
aVstat train subway pentax den tram just haag justpentax
p484
aVoc blu sea mer mountain anim vancouv montagn island boat colomb bc den il victor bleu queu planet whal brit orc oc pred bateau cre tal balein colomby orqu pred britan
p485
aVdog dog canon puppy interest puppy lab labrad yellowlab lily 2006 retriev labradorretriev yellowlabradorretriev interestingness44 i500 paigelyn thebiggestgroup explore17jun06
p486
aVchristmas costum cut dog yod mojo pug wooky boa abigfav explore112606367 impressedbeauty ultimateshot
p487
aVdog calg dog yellow goldenretriev puppy bel porridg rub beg royc beg rub dogdayc wwwdogdaycareca 40d tamron1750mmf28 eos40d
p488
aVdog pet pet art 20d dog anim anim goldenretriev canon bravo canon20d canoneos20d buck canoneo blueribbonwin tommysim 38883 mywin impressedbeauty tsexpl copyrightwwwtommysimmscom
p489
aVblu sky dog dog anim cloud gul gul top20dogpix top20dogpixhalloffame bul pgphotography miorit edgarthiss abigfav
p490
aVdog puppy expl hund supershot impressedbeauty ysplix tadelloes photosmart715
p491
aVdog pet pet brown whit black dog anim ey husky fv5 shannon siberianhusky sib furryfriday feel workingdog
p492
aVportrait dog pet pet lov dog anim closeup puppy puppy husky funny clos bea sweet retrato ad husky lun perro anim cerc lov mascot mascota perrit perr gracios impressedbeauty aunqtunolosepa goldstaraward
p493
aVdog anim nikon hund ih naturesfinest englishcockerspaniel d80 englishcockerspaniel franzst
p494
aVpet dog anim nikon friend best mansbestfriend k9 dap k9s abigfav anawesomeshot dabley dapagroupmeritaward phiggy phiggy dapagroupmeritaward2 llovemyp photoskillz
p495
aVdog can treviso cagnolino 500x500 bastardino impressedbeauty superheart trevid winner500
p496
aVpark dog lak dog thailand homeless northeast isa kor nakhonratchasim \u0e1a\u0e38\u0e48\u0e07\u0e15\u0e32\u0e2b\u0e25\u0e31\u0e48\u0e27 \u0e19\u0e04\u0e23\u0e23\u0e32\u0e2a\u0e2a\u0e35\u0e21\u0e32 \u0e2a\u0e27\u0e19\u0e19\u0e49\u0e33
p497
aVdog puppy chihuahua
p498
aVsant christmas bell tes shel shetlandsheepdog shel pet hugsrgood dog anim
p499
aVschool girl us boy vint childr us war drum unitedstatesofameric wwi perform americanfl flag slidefilm parad worldwari 1940s transp ww2 4x5 lf americanfl libraryofcongress uniform schools conneticut patriot largeform worldwar2 transp civil southington historicalphotograph xmlns:dc=httppurlorgdcelements11 dc:identifier=httphdllocgovlocpnpfsac1a35006
p500
aVchin earthquak poetryandpicturesintern threedaysofmourning forthosewholeftandleftbehindiprayforyou imournwithchin
p501
aVfish macro wat yellow germany ilov aquar top20np underw tank verdeeamarelo wilhelmshav addtoitsong
p502
aVfish chicago aquar illino nikk lincolnparkzoo lakemalaw chicagoillino 18200mmf3556gvr interestingness436 i500 scoreme40 nikonstunninggallery explore15aug06 regensteinafricanjourney
p503
aVfish swim catchycol aquar underw canon20d fishlip parrotf iwishicouldf stoopidgerl flickrdiamond
p504
aVtravel fish pez reflect ey nat topf25 anim topv111 aquar topv333 bravo venezuel olymp 500v50f margarit reflexo acuar thegallery e330 magicdonkey outstandingshot specanim atrium09 animalkingdomelit challengeyouwin abigfav shieldofexcel superapl aplusphoto ltytr1 flickrplatin flickrchallengegroup flickrchallengewin rubenseabr
p505
aVfish nat canon goldf naturesfinest supershot flickrsbest chiliu
p506
aVorang fish wat beauty topv2222 wow wond design amaz cool nic topf75 goldf topv1111 gre pop loveit excel swirl topf100 extraordin calendarshot color:hsv_avg=1a66f6 color:hsv_med=164ffd color:rgb_avg=f7d194 color:rgb_med=fdd8ae anawesomeshot impressedbeauty citrit flickrphotoaward themespir
p507
aVfish aquar shark underw 100v10f \u30b8\u30f3\u30d9\u30a4\u30b6\u30e1 aquar the3rdday 666v6f okinawatrip okinawachuraumiaquar okinawawhaleshark
p508
aVfish cre photograph photo flickr goldf countyfair deborahlattim bigfun mynewpet lattim beautyin ddlatt dlattim dlat
p509
aVsea orang fish yellow az mar nemo galic amarillo naranj acuariomarino pezpayaso sanxenxo specn saramusico
p510
aVfish wat tag3 taggedout tag2 tag1 littl
p511
aVred fish canon eo goldf ir newyear expl creativecommon ir tradit nowrooz 40d canoneos40d hap hamidnajaf
p512
aVpet fish green beauty gold aquar wand ey topf50 goldf best 500v50f fpc tomanthony eliteim anawesomephotograph montijoverdeamarelo themepet
p513
aVblu fish canon turkey istanb turquy turqu fa turch turke naturesfinest blueribbonwin magicdonkey canonpowershota700 abigfav colorphotoaward impressedbeauty irresistiblebeauty blueribbonphotograph superbmasterpiec excellentphotographeraward flickrelit theunforgetablepict colourartaward
p514
aVblu fish col reflect nat beauty anim jap d50 nikon funny kanagaw nikkor50mmf14d lovelyphoto mysummershot
p515
aVred pet fish anim fz20 col goldf joy relax happy shy panason hid lov mygard garg secretgard thialand nonthabur beautiful araley passionphotograph leicadigit diamondclassphotograph flickrdiamond
p516
aVcaliforn ca us publ cal americ photoshop mexico freedom la us losangel cool nikon pix day cs2 flag lab aly protest believ americanfl 2006 ps right demonst soc believ illeg kri immigr hdr jjj struggle laborday eq right eq right nikoncoolpix may1 humanright 3xp photomatix illegala pscs2 kro kriskro kk2k
p517
aVblu red arizon us whit americ flag patriot prescot
p518
aVus bravo searchthebest flag woody patriot 500v50f karm july4th independenceday redwhiteblu supershot magicdonkey twtme hb19 abigfav adventuresofwoody flickrgold 30faves30comments300views superapl aplusphoto 50faves50comments500views goldenphotograph
p519
aVworld hist turkey march war annivers flag 18th vict coolpix nav 1915 soe turk canakk cub fpc blueribbonwin i mywin platinumphoto anawesomeshot impressedbeauty superbmasterpiec diamondclassphotograph ilovemyp theunforgettablepict betterthangood theperfectphotograph goldstaraward mailcil canmom thebestofday llovemyp explorewinnersoftheworld showmeyourqualitypixel alemdagqualityonlyclub 92th
p520
aVtrip red vac moon whit lov beauty night build geotag light star high cool holiday as southeastas skyscrap nightshot stripes flag sony awesom petrona tow cybershot landmark spec malays hug twintow giant tal kualalump lov high klcc impress t200 impon danorbit sonyt200
p521
aVblu red whit americ freedom us unitedst flag flag am vot vet onemil abigfav
p522
aVunfound flag americ unitedst starsandstrip star stripes wav redwhiteandblu oldgl wallpap desktop blackground
p523
aVpark uk greatbritain blu red england sky whit wal scotland interest interest cheshir unitedkingdom britain lovely1 flag un northernireland brit nationaltrust unionjack unionfl tatton tattonpark moostick
p524
aVred sky ontario canad cloud canon catchycol flag sigm canad kincardin canon400d aplusphoto sigma18200dcos spiritofphotograph
p525
aVscaamanho 3rarepublica republic republ carmel ebro 5tabrigada madrid bander flag bravo aplusphoto outstandingshot
p526
aVblu rescu dog pet anim fem flag jasmin canin bandan australiancattledog herd blueribbonwin shelterdog sixyearsold nikond200 supershot august2007 nikkor1755mm impressedbeauty bluetickheel wowiekazowy yankeedoodlejasmin
p527
aVred sea sum sky yellow cloud mar est wind flag giallo cielo rosso gallipol salento lecc vento 2007 bandy puntadellasuin giallurussu lafinedellest colourartaward
p528
aVportug boat fish barco flag pesc matosinho bandeira pffg abigfav impressedbeauty aplusphoto postaisilustradosdeportug theunforgettablepict ilustrarportug franciscooliveir
p529
aVmoon newyork mot blur delete5 delete2 nightshot delete6 save3 delete3 save7 save8 delet delete4 sav save2 flag rochest save9 save4 save5 save10 save6 1785mm savedbythedeltemeuncensoredgroup usfl newyorkfl rochesterfl delete7forslowburn
p530
aVus mal washingtondc flag washingtonmonu hdr toshio
p531
aVorang bik washingtondc dusk silhouet flag nationalmal dcist washingtonmonu croppedbutotherwiseuntouch ithoughtitwascoolhowthisturnedout ihadnoideahowmycamerawoulddoshootingintothesunset
p532
aVblu nep whit mountain snow mountain cold green ic yellow rock vert trek high shrine wind hik pray peak windy flag mount canon350d prayerfl himalay pol annapurn annapurna firstq annapurnabasecamp annapurna annapurnasanctu altitid morealtitud 1785mmusmis annapurnahim 8091m annapurnamass 26538ft
p533
aVthankyou flag 50 redwhiteandblu healingfield pfo 3wc photofaceoffwin
p534
aVturkey germany deutschland footbal nikon euro flag socc flag em 2008 sieg ws
p535
aVchristmas red whit postcard flag weihnachtsman santacla greetingcard xenonb weihnachtsmannausstellung
p536
aVcomunidadvalencian spain boat flag sea harbo
p537
aVsky cloud col angl pray perspect buddh flag prayerfl widel gebetsfahn diamondclassphotograph
p538
aVuk red whit london footbal flag flat patriot stgeorge eastend bethnalgreen eastlondon bunt 100134gossettstreet
p539
aVsum hist train traintrack perspect track engin maryland americanfl flag steam trainst transport hist cumberland steamengin westernmaryland toshio heritageday lensbl 734
p540
aVwat out check fish ship goggl flag submarin fantasy pacificnorthwest mir pugetsound expery fig washingtonst phantasm fabr cub madeyemoody inspiredbylov imagepoetry abigfav abigfav platinumphoto sachy pigaward moody\u2019s
p541
aVsky film mediumform holg lomo xpro lomograph crossprocess toycamer flag 200 squareform agf vignet vignet sagr 120n udin holga120n rsxii agfarsxii200 federicoferrar cussignacco
p542
aVus star display stripes nevad flag mesquit am flickrsbest
p543
aVblu atlant red copyright whit green dar yellow georg jam j day purpl ryan d lab flag djam laborday allrightsreserv salesales darrenry
p544
aVtravel blu sky southameric nikon flag boliv flag tamron sal saltfl uyun instantfav d80 diamondclassphotograph
p545
aVstreet camer red london film yellow train work 35mm underground 1 lomo lca xpro lomograph xprocess cross flo low tub platform deep ct slid victor lin oxford soviet 100 process agf russ level compact autom refurb 32mm london precis kompakt minit
p546
aVflow whit flow muro lov wal canon grey pet stencil grigio purpl fear mam story amo conceiv fior conceiv fior viol petal bianco am aaa northernst helovesm helovesmenot gen nonmam northernstarandthewhiterabbit ilmaim ilnemaimepa 300508h142238999visitexd adessoson39067pensate
p547
aVflow ros coolest naturesfinest blueribbonwin supershot abigfav colorphotoaward superbmasterpiec emasplit flickrdiamond flowersart 40100fave wievs800090000
p548
aVpink flow orang hot col flor gard spring tulip mosa magent photomosa tulip judy hotpink hotcol parrottulip stal
p549
aVflow whit newyork green jun yellow geotag nikon raw nef bokeh 2006 upstateny noflash depthoffield softw 1755mmf28g d200 lakechamplain valco nikoncapt capturenx geolat4459389 geolon73441029
p550
aVflow blu sky mountain mountain flow topf25 berg yellow 1025fav landscap geotag photograph austr bravo wideangl fishey mm 105 berg nikk bloem bloem 105mmf28gfisheye firstq wynand nikonstunninggallery sixsixsixclub superapl aplusphoto
p551
aVflow favorit flow macro me nat d50 interest nikon flickr calend photo cre photograph fast diamond expl scor macrophotograph aphoto naturesfinest thebigon macrophoto blueribbonwin a flowerotic abigfav scoremefast 1a10brasil macromacromacro diamondaward onlythebest brillianteyejewel natureonhisbest openart nature\u2019sfinest grupo1a10brasil criticafotografic visaofotografic
p552
aVuk flow england sky andrewl stamfordpark canon400d andrewlee1967 focusman5
p553
aVca flow sky favorit orang beauty wow found bravo group bluesky expl view poppy poppy 2550favs excel naturesfinest supershot onetopfav expl hrefhttpwwwflickrcomgroupsflowerintheskyflow abigfav vision1000 1bluecanoe visiongroup superbmasterpiec vision100
p554
aVflow orang plant whit plant flow green tox beauty wow wond whiteflow nic fantast bravo perfect superb gre bonit stun lov bbg excel whiteflow personalbest lovelyflow toxicpl specn mywin abigfav photof thisisawallhang bfv1 anawesomeshot colorphotoaward impressedbeauty diamondclassphotograph flickrdiamond excellentsflow flowersallkind
p555
aVflow flow nat jap ilov spring nikon bravo poppy 28105mmf3545d d200 nikk naturesc nikond200 thebiggestgroup nikonstunninggallery hiroyukiw abigfav
p556
aVflow us monu mal washingtondc dc washington districtofcolumb tulip washingtonmonu hdr toshio superapl aplusphoto potwkkc36
p557
aVflow flow nat canon flor bravo canon350d coneflow canonrebel excel abigfav anawesomeshot impressedbeauty naturefinest
p558
aVflow sum sky flow macro nat fle anim cloud fle gard insect pet searchthebest bee penstemon insect naturesfinest splendiferous interestingness27 mywin abigfav shieldofexcel anawesomeshot impressedbeauty
p559
aVoc blu school giant shark underw fee indianoc whal whaleshark sho robinhugh christmasisland rhincodontyp baitf
p560
aVanim canon wow giant marin austral nsw 100views hug 200views whal humpback upclos mag underthese wildlifeofaustral montageisland thesouthcoast mam
p561
aVafric keny expl zebr giraff conserv retic lew specanim abigfav
p562
aVoc fish wat swim shark underw group
p563
aVanim zoo blackwhit singap perfect stripes zebr herd animalplanet breathtak blueribbonwin golddragon abigfav bthe theexhibit anawesomeshot superapl aplusphoto firsttheear superheart ilovemyp photofaceoffwin photographerb colourartaward platinumheartaward perfectphotograph theexhibitupstair 100earthcomments earthmarvels50earthfave
p564
aVhors snow hom spring vermont snowy impressedbeauty wowiekazowy mckinstryhillgang eliteim
p565
aVvoy travel wint hors snow canad misty mystery bravo quebec qual mostinterest myst photog imapix blueribbonwin magicdonkey gaetanbourqu 200750plusfaves 200750plusfavesfebruarycontest
p566
aVcamp hors paint calg backlight smok albert teep nativeam makingthemovy kiow luc littlehouseontheprairy luc filmform
p567
aVwint hors whit snow ski film nat anim analog hospit switzerland coupl suiss swiss cent grac heal skiresort davo wef snowboard katarin slop worldeconomicfor nikonf401s stefanov artistoftheyear platinumphoto diamondclassphotograph megashot theunforgettablepict platinumheartaward lunarvil theperfectphotograph helvetiaschw winterto highestelevationcityineurop formoreinfoontheprojectseeprofil
p568
aVhors anim bravo searchthebest idaho swanvalley naturesfinest supershot superapl aplusphoto goldenphotograph diamondclassphotograph jamesneeley tribehorizon onlythebest
p569
aVsky hors hors cloud lumix saveme3 deleteme10 panason top20horsepix fz5 loh flamborough dmcfz5 cotcmostinterest scoreme40 flamboroughdown
p570
aVhors 350d expl stal canoneos350d naturesfinest hest blueribbonwin abigfav superbmasterpiec diamondclassphotograph flickrdiamond icelandichores
p571
aVhors hors argentin criollo caballo chev caballo bravo cavalo pferd cavall cavallo cavalo gaucho pferd chevaux gaucho campero provinciadebuenosair galop sanantoniodeareco areco crioulo caballoscriollo criollo campero golddragon crioulo cavalocrioulo holidaysvacanzeurlaub caballocriollo campeiro campeiro cavaloscrioulo
p572
aVfamy flow hors hors food brown text grass yellow cloud dark pap mom kid cloudy eat spot calm platinumphoto diamondclassphotograph flickrdiamond
p573
aVhors holland nat monst nederland thenetherland denha thehagu paard kijkduin galop naturesfinest natuurgeby blueribbonwin vob fjordenpaard supershot pieter007 solleveld abigfav canoneos400d anawesomeshot aplusphoto theperfectphotograph pietermusterd fjordenpaard firsttheeear
p574
aVhors hors caballo uruguay chev caballo cavalo prado montevideo pferd cavall cavallo cavalo gaucho pferd chevaux gaucho urugua jinetead ginetead semanacrioll semanacriolladelprado
p575
aVhors d70s septemb pa devon quiron dress dressageatdevon decoratedanim
p576
aVhors beauty palomino
p577
aVhors hors paint cloverd equin impressedbeauty
p578
aVcol green nat wat jap leaf spring shot outstand blueribbonwin supershot outstandingshot
p579
aVabstract black green canon leaf bravo dof searchthebest bokeh naturesfinest supershot 400d macro12 top30green bppslideshow
p580
aVtopf25 leav fog leaf tramonto 23 fogl coolest controluc nat punt flickrsbest gardawind 25faves abigfav 23foglie
p581
aVnat d50 gold leaf oak nikon bravo searchthebest bokeh guckstdu portfolio10 backlightn
p582
aVlif wat leav yellow leaf pond underw soe afterl naturesfinest specn abigfav anawesomeshot aplusphoto diamondclassphotograph fiveflickrfav miradel hahahahathatmademelaughsomuchdidyouneedpermissionforthos didimadlobaforthephoto atqueartific miradudel
p583
aVautumn fal jap leaf mapl kyoto dof bokeh momij \u4eac\u90fd \u7d05\u8449 soe themoulinroug \u7adc\u5b89\u5bfa naturesfinest ryuanj goldenmix abigfav platinumphoto superheart takay thatsclassy photofaceoffwin macromix wonderfulworldmix goldstaraward
p584
aVred freedom democr leaf burm fre blad expl fri demokrat freeburm frihet ultimateshot redforthepeopleofburm myan
p585
aVautumn red orang fal topf25 leav leaf mapl bravo bright firework fv10 burst explore4
p586
aVsea ita rom jap nikon mar fre ros sigm austral expl dolphin pass napol acqu azzurro soe animal fin oceano delfino d300 delfin sb800 liber pin supershot passionphotograph abigfav anawesomeshot impressedbeauty superbmasterpiec diamondclassphotograph d40x ysplix rosacelo rosariocelotto mcb1805
p587
aVoc ilov mam marin dominicanrepubl carrib atl whal humpback humpbackwh fluk allrightsreserv pect sevensea rorq ilovetheoc silverbank megapter thoughtstoliveby novanglia megapteranovanglia animalencountersnw copyrightscottsansenbach2008
p588
aVkillerwh orc vancouverisland britishcolumb westcoast marin mam marinemam topv111 nationalgeograph ngstyle mostinterest wow
p589
aVblu wat topv2222 swim mam aquar marin topf75 tank dolphin dolphin yokoham \u6a2a\u6d5c hakkeijim seaparad aquamuse itsong\u2013canoneos20d itsong\u2013adayattheaquarium
p590
aVireland marin wildl scub div molamol oceansunf irishwildl schwimmenderkopf poissondelun
p591
aVwild nat beauty jump jump marin britishcolumb wildl victor vancouverisland orc mam killerwh airborn whalewatch supern sanjuanisland breach cub jpod southernresid princeofwh harostrait flyingorc killerwhalepict anawesomeshot diamondclassphotograph flickrdiamond orcawizard goldstaraward wildkillerwh
p592
aVcanon hawai flickr mau estrella abigfav hbppix superapl aplusphoto superheart fiveflickrfav
p593
aV20d topf25 1025fav mau whal humpback day6 sierraclub servicetrip myzeitg theme2005inreview
p594
aVoc blu sea ey wat mou mam hawai div seal mau snorkel whal seacr marinel underwaterphoto reefl oceananim thatsclassy
p595
aVfunnyfac fac funny texa zebr popul net 1000views yourfav naturalbridgewildliferanch drivethrusafar mrjuly abigfav lmaoanimalphotoaward barnyardfunny thisismybuddyicon floridazebrasorg seeninthe2008carcenoidcancercalendar cafecrowdadminschoiceaward top5v
p596
aVsky sun silhouet cloud photoshop plan avy johndenv themoulinroug fernweh abigfav anawesomeshot impressedbeauty superapl aplusphoto holidaysvacanzeurlaub platinumheartaward
p597
aVdeleteme5 deleteme8 deletem deleteme2 deleteme3 deleteme4 deleteme6 deleteme9 deleteme7 plan dc washington saveme4 saveme2 saveme3 deleteme10 save3 save7 save8 sav save2 save9 save4 dcist save5 save10 save6 gravellypoint
p598
aV2002 sum sky favorit ny newyork topv111 cloud 1025fav plan interest interest topv333 scout adirondack lakegeorg expl mostinterest fav favorit yourfav yourfav irredec starrgazrsown
p599
aVworld oc blu sea us nat wat pool americ us interest orlando underw florid deep expl kil whal orc capt shamu teko cetac cetac 10faves 35faves anawesomeshot ultimateshot top20blue ysplix
p600
aVblu ireland red orang green rain yellow tag3 taggedout rainbow tag2 tag1 cork violet indigo doublerainbow corcaigh supernum 100f interestingness6 100faves alexandersband supernumeraryrainbow abigfav alexanderband
p601
aVuk deleteme5 deleteme8 england deletem deleteme2 deleteme3 deleteme4 deleteme6 deleteme9 deleteme7 rainbow octob savem unitedkingdom saveme2 deleteme10 2006 absolutwad thesourc
p602
aVblu red mus green yellow rainbow purpl sing song us colo everyday song babel thecontinu orhantsolak mundouno abigfav 2pair makeonesday dearflickrfriend rainbownet geniiloc singingapict
p603
aVblu sky jap rainbow kyoto vivid breathtak naturesfinest blueribbonwin 123sky abigfav favoriteson superapl aplusphoto colourartaward cmmdblue
p604
aVblu red orang wow turkey 350d iso100 rainbow purpl extrem istanb doublerainbow eos350d canoneosdigitalrebelxt gokkusag bahcekoy orm sariy
p605
aVrainbow doublerainbow naturesfinest weizenfeld outstandingshot 072007 impressedbeauty aplusphoto superbmasterpiec diamondclassphotograph westernpommeran
p606
aVrainbow sunset top20favorites
p607
aVireland 1 rainbow doneg ulst thesourc specn abigfav
p608
aVarcoir canon rainbow spain 300d asturia breathtak somiedo imposs impos littlest abigfav onlyyourbestshot wwwholidaysinspaincomnorte popsgallery picswithso mastersoflifegallery
p609
aVpaisas storm frant rain arcoir lafotodelaseman landscap lluv rainbow bravo torment franc loveyou cherbourg 1in10f100v 1in10f200v 1in10f50v 1in10f700v 1in10f900v 1in10f800v picturesfromthebo abigfav lfs042007
p610
aVoc blu sky reflect rainbow bravo searchthebest bryce3d exploreinterest outofthisworld stpatricksday haveagreatday 250v10f abigfav anawesomeshot impressedbeauty potofgoldisjustaroundthecorn
p611
aV15fav sailbo canon rainbow gut palmt trop rebelxt stlucia tikay wisdoc gtaggroup goddaym1
p612
aVlight storm nat tag3 outdo rainbow col tag2 tag1 magicdonkey 434explorepages
p613
aVir en regenboog arcoir rainbow spain espanh arc andaluc ciel jaen andalus espagn arcobaleno arco spany regenbog spagn spand andalousy arcenciel ubed cub potofgold \u5f69\u8679 supershot superbmasterpiec diamondclassphotograph flickrdiamond flickrelit theunforgettablepict platinumheartaward a3b tup2
p614
aVholland regenboog landscap countrysid rainbow bravo scenery gron cinem atmosph drenth luxury masterphotograph naturescap scenicview firstq supershot abigfav artlibr anawesomeshot visiongroup cresk vision100 photoartbloggroup mightymothern
p615
aVblu autumn red sky lak reflect nat wat sunr suom finland rainbow gallery septemb oulu nat ves syksy luonto sinin themoulinroug punain heijast sateenkaar naturesfinest taiva auringonnousu syyskuu supershot platinumphoto impressedbeauty superbmasterpiec theunforgettablepict
p616
aVtre tre interest rainbow colo austral expl tasman pointandshoot tassy hagley i500 olympussp500 specn josplac i5009 fcrnbws tassiesim appleisl
p617
aVblu sky rainbow langsid flickrsbest
p618
aVoc travel cru sea vac col rainbow bravo col searchthebest weekend getaway cru carib travel jpeg soe hdr nikkor18200mmvr 1exp abigfav anawesomeshot impressedbeauty onlythebest dynamicphotohdr nikond300
p619
aVarcoir mexico rainbow guadalajar jalisco nostalg babel diamondclassphotograph flickrdiamond
p620
aVautumn sky fal ma photo rainbow doubl stow utataf
p621
aVcanad nat wow amaz rainbow minolt quebec cok 200iso peps cocacol pol 7up snackb 50mmlense konicaminoltafilm weeklyfav06 weeklyfav06best michelin
p622
aVoc us bird nat topf25 beauty ilov rainbow perfect florid miam pel atl fortlauderd stun lilian animalplanet naturesc lilith121 jastrzabek thesevensea
p623
aVsky ita arcoir cloud landscap rainbow dark arcenciel friul peoplescho cormon
p624
aVflow sum lak rain wow landscap switzerland ev rainbow mag coolest vevey lavaux sod rainrainrain romandy genevalunch bfv1 risforrainbow naturewatch weregrowingwebbedfeet ididonlywanttopostonebutcantdecidewhichon
p625
aVtravel shadow panoram us holiday alask americ landscap rainbow ombr arcobaleno statiunit supershot anawesomeshot aplusphoto eliteim
p626
aVblu sky col col digit canon rainbow loveit expl canonrebel rainbow fav potofgold blueribbonwin 20favs xti abigfav platinumphoto anawesomeshot aplusphoto diamondclassphotograph flickrdiamond megashot theunforgettablepict platinumheartaward betterthangood theperfectphotograph goldstaraward unlimitedphoto ilovemyp spiritofphotograph rubyphotograph
p627
aVnew york wint canad cold ic wat riv niagarafal waterfal rainbow niagar fal horsesho icy roar outstandingshot outstandingshotshighlight
p628
aVrainbow wyom dubo supershot specn thebiggestgroup diamondclassphotograph flickrdiamond 3waythemerainbow
p629
aVlandscap rainbow bravo yorkshir dal yorkshir peoplescho naturesfinest outstandingshot flickrsbest 25faves northyorshir anawesomeshot g7kxv superbmasterpiec goldenphotograph diamondclassphotograph flickrdiamond lunarvil ysplix theperfectphotograph
p630
aVsky abbey rain cloud rainbow yorkshir whitby coolest 35faves 25faves mywin firsttheear wowiekazowy exploreunexpl excapt thegoldendream
p631
aVmer rainbow vagu manch arcenciel diamondclassphotograph flickrdiamond theunforgettablepict natureselegantshot \ufffdisawyoufirst\ufffd
p632
aVcity blu sunset sea sky beach wat col rain cloud rainbow nikon 10 sigm iso arab kuwait d200 20 nois jam alayoub
p633
aVnaturalez primaver nat wat col rain arcoir lago mar reflex spring lluv rainbow agu col cielo el espejo reflejo mayo lagun reflect teruel tierr medioamby potofgold ecolog elemento beza the4elements anawesomeshot
p634
aVoc rainbow soph pacificoc poodl mendocino standardpoodl flickrplatin deborahlikesit
p635
aVsky hom wat scotland riverclyd clyd rainbow alb argyl scot peac scot reflect breathtak scot gloam d40 aplusphoto
p636
aVwat jap riv landscap waterfal rainbow bec cascad soe \u5bec\u58eb\u5c71 shiraitonotak \u8679 abigfav platinumphoto superbmasterpiec diamondclassphotograph takay theunforgettablepict photofaceoffwin shitaito
p637
aVnat wat col scotland rainbow eau coul stirl rainbow arcenciel \u05e1\u05e7\u05d5\u05d8\u05dc\u05e0\u05d3 \u05e1\u05d8\u05e8\u05dc\u05d9\u05e0\u05d2 ronalmog impressedbeauty superapl aplusphoto
p638
aVhous nat rainbow sou vivid austral stormy adelaid southaustral hdr superapl aplusphoto kelvinwong piscesrom impressivemood
p639
aVtopf25 wat topf50 topf75 bravo rock 500v20f listeningto nj waterfal lookingdown topf150 topf100 f4 hdr berkeleyheight ndfilter seeleyspond i6 photomatix 15feet 12second 1500v60f 1000v40f nikonstunninggallery 3000v120f 14second thepretenderslastoftheindepend 164mm njdodgeutatafeature
p640
aVtre nat wat creek landscap waterfal interest bravo rock canon20d alabam interestingness1 123 veget waterbl capt exceiv canon1740mmf4l naturesfinest gravescreek alabamathebeauty flickrexpl mardismillfal anawesomeshot superbmasterpiec diamondclassphotograph flickrdiamond
p641
aVsunset sea tre wat relax nikon singap rock wav rag expl chang frontp psb expos themoulinroug takeiteasy goodev tonemap d80 nikond80 explorefp rags1969 progressivestageblend
p642
aVoc travel mountain sailbo rock mediter shorelin peac malt cliff ser naturesfinest superbmasterpiec
p643
aVoc uk greatbritain sea england blackandwhit bw monochrom rock squ portland mono blackwhit rock unitedkingdom britain cran bn el dorset gb bandw sq crev portlandbil greeng adamclutterbuck boatcr sqbw bwsq showinrecentset
p644
aVsea bravo rock hdr guernsey chouet judgmentday63 subtlehdr abigfav
p645
aVcaliforn longexpos sunset beach cloud bravo rock pacificoc blueribbonwin supershot magicdonkey pfflyers1 abigfav
p646
aVwat sunr reflect landscap dawn bravo singap rock searchthebest sony reservoir up alph soe hdr a100 themoulinroug peirc naturesfinest photomatix magicdonkey tonemap 7exp tamron1118mm abigfav anawesomeshot danielcheong hdrenfrancais superbmasterpiec diamondclassphotograph flickrelit
p647
aVoc sea beach cloud sand rock violet gradu rockpool angrycloud abigfav impressedbeauty superapl aplusphoto
p648
aVphoto unfound sign stop hammertim mchammer unt camp denton texa stencil graffit budgetcam
p649
aVwhit black par frant col sign yellow warn triangl metro elect stickfig lightn peril tapd atleasthegetstokeephishead ohpostthatonealready icantitneedscroppingandbesidesyoucanpostit nucropalreadyiamsurethatifyousearchreallyhardyouwillfindatleastonecropmachineineurop ohnotheydontdothingslikethatheretheyhavetraditionstheyalsohaveannoyingkeyboardsanddisgustingfalafel
p650
aVsanfrancisco red sign star neon bakery irony hdr 3xp sfchronicle96hours
p651
aVabandon halloween minnesot sign alt found graffit screenprint handmad pumpkin gocco silkscreen bowl goldenvalley suburb ghost publicart twint bowlingalley
p652
aVseattl film sign analog polaroid sx70 ishootfilm filmcamer analogphotograph wallingford polaroidsx70 polaroidweek dickshamburg nondfilt expired600film vintagefilmcamer roidweek2008
p653
aVseniorcross xing sign ag roadsign sign 510fav
p654
aVstreet red urb ita whit man black col colo lin sign wal squ interest xpro ital cross cross walk cosin streetsign brick lin bath crossprocess photowalk streetsigns mund matton
p655
aVvega us sign photoshop lomo unitedst lasvega nevad northameric fv10 mandalaybay fakelomo expery lomoeffect 10faves impressedbeauty platinumheartaward
p656
aVsign polaroid holg bakery holgaroid stlouiscounty type89 federhof federhofersbakery qualityv
p657
aVuk blu england sky sign blueribbonwin abigfav disabledpeopl anawesomeshot ultimateshot diamondclassphotograph kastb theperfectphotograph
p658
aVsign religy mess text billboard picnik project365 365days faity
p659
aVstreet uk greatbritain travel peopl sign scotland interest hum object expl eld inv 2007 july7th interestingness201 expl i201 i250 interestingness250july5th2007 msh010813 msh0108
p660
aVstreet blu green sign met corn rust
p661
aVcounty columb ohio sign vint wond bread franklin downtown neon von ter vannah franklincounty sallyblomiley vannahvonter
p662
aVarizon sky green sign cloud arrow left hdr prescot mikeb 5xp
p663
aVdeleteme5 deleteme8 deletem deleteme2 deleteme3 deleteme4 deleteme6 deleteme9 deleteme7 topf25 sign dang interest lomo xpro fuj savem saveme2 saveme3 deleteme10 topv1111 interestingness1 arrow guaratub
p664
aVblu naturalez whit snow blanco nat anim anim az montagn landscap mexico lago niev lac paisas bleu freez mex anim neig pays animaux blant frio hielo tundr montain toluc reptil nevado montain montagn aguila aguil nev reptil volc venado venado nevadodetoluc congelado nikond80 lagodelsol rajkov
p665
aVwint sunset snow ski jap hokkaido pentax snowboard hdr niseko photomatix annupur 5xp 1020mmsigma k10d goldstaraward
p666
aVwhit snow cold canon 300d bc barn sigm 50500 firstsnow mapleridg shed rog45 3000v120f 224th abigfav impressedbeauty canonshowcas excellentphotographeraward top20white theenchantedcarousel
p667
aVnyc newyorkc whit snow newyork topf25 mystery nikon harlem manhat 2006 noflash d200 febru 50mmf14ais blizzard06 nycblizzard
p668
aVstreet wint snow frant cold col lumix streetphotography ang utataf
p669
aVtravel wint snow canad contrast bravo quebec dram soe gaspesy perc imapix magicdonkey outstandingshot gaetanbourqu abigfav flickrplatin 200750plusfaves superbmasterpiec nottaggedornotinvitedforiaegroup bratanesqu fiveflickrfav myportfoliobest15
p670
aVtre wint snow canad bravo quebec hiv neig arbr soe mus sauv themoulinroug naturesfinest blueribbonwin mus firstq supershot magicdonkey abigfav shieldofexcel platinumphoto anawesomeshot impressedbeauty aplusphoto irresistiblebeauty goldenphotograph diamondclassphotograph flickrdiamond ysplix excellentphotograph flickrelit theperfectphotograph world100f
p671
aVwint snow landscap spain bravo niev nevad asturia paisas invierno astury naturesfinest 500x500 interestingness13 abigfav superapl aplusphoto ltytr2 ltytr1 clickaddict
p672
aVwint sun snow ontario landscap mono fuj bluesky s5200 drift themoulinroug fujifilmfinepixs5200 supershot abigfav grantmacdonald theperfectphotograph
p673
aVtre wint snow tre nat abigfav
p674
aVwint red whit snow cold beauty suom finland europ decemb searchthebest nor freez scandinav wonderland kouvol kymenlaakso nikonstunninggallery impressedbeauty isawyoufirst lomejordelasemanafuy0607 kaunisnurm 2omasvotosfuy0607 lomejorde2000fuy bachspicsgallery
p675
aVsnow cold geotag interest poland expl zim cheapcamer janusz snieg geo:lat=51226453 geo:lon=15603333
p676
aVblu wint sky snow tre text nat cloud photoshop landscap bravo soe 500x500 justlikeheav nikond200 magicdonkey platinumphoto pilouttitud superapl aplusphoto flickrplatin infinestyl goldenphotograph treesubject megashot theunforgettablepict heavenlyb platinumheartaward thegardenofz world100f 240x240
p677
aVcaliforn wint snow canon bluesky yosemit yosemitenationalpark nationalpark canons400 usnationalpark abigfav colorphotoaward impressedbeauty superapl ultimateshot superbmasterpiec beyondexcel
p678
aVita snow topv111 night interest nev duoton 300 not marzagl flicky excellenceinphotographyeurop
p679
aVsnow par frant bravo niev olymp neig e500 magicdonkey outstandingshot haltenhof abigfav artlibr travelerphoto goldenphotograph bratanesqu
p680
aVsnow night snowsho interest utat seymo cwal beammeup interestingness54 nightphotographyproject i500
p681
aVwhit snow cold topf25 beauty topv111 alask canon topf50 pretty quiet topv1111 fluffy moo fal juneau expl nophotoshop hush spruce oneyear topt on wintercov calendarshot i500 specn xti fivestarsgallery nopostedit interestingness42nov29 infinestyl
p682
aVcaliforn longexpos sky snow night nightshot sierr mammo moonlight mammothmountain easternsierr eternalland itsongselect itsong\u2013nikond100 itsong\u2013eternal\u2013northamerica fwy395
p683
aVwhit snow nat topv2222 wow wond topf50 neighb soe 666v6f abigfav shieldofexcel anawesomeshot 75faves75comments750views 75faves 750v75f
p684
aVsnow beauty weath twilight lavend beautifullight impress letitsnow winterwonderland likeapaint i500 interesting4 abigfav outstandingshot shieldofexcel lindayvon impressedbeauty holidaymood songref
p685
aVsnow topf25 munich topc50 run highkey canonef1740mmf4lusm 1500v60f
p686
aVchin travel wint snow storm chines beid tour greatwal \u5b17\u4eac \u4e2d\u56fd mutianyu greatwallofchin webel explore18nov05 cmctppgreatwall
p687
aVwint snow canad cold de cool quebec hiv styl neig sick bd printemp froid joi malad tr criss virela2 gardela2 virela3 gardela3 virela4 virela5 virela6 virela7 gardela4 gardela5 virela8 virela9 virela10 gardela6 gardela7 virela1 benoitp tabarnack mardeblanch gardelavmq
p688
aVwint snow macro topf25 mrjackfrost snowflak decemb michig abigfav impressedbeauty
p689
aVsnow mountain sunr landscap bravo wyom teton teton soe hdr blueribbonwin supershot magicdonkey 5xp outstandingshot abigfav colorphotoaward superapl aplusphoto ultimateshot goldenphotograph wowiekazowy diamondclassphotograph flickrdiamond jamesneeley
p690
aVwint sunset snow film kayak velv kayak monolak paddl kodiak wildwass prijon buckforest tufatow brianernst paddlingmonolak kayakingmonolak monolakekayak
p691
aVwindow snow cold abandon hom cloud photoshop dark iceland sweet omin tripod curv shed janu plast trail stark 2008 motorhom tool 29th 3xp photomatix hvassahraun lostwheel
p692
aVstreet shadow snow abstract wisconsin tabl chair stat geometry satellit fv5 madison el planet highkey statestreet hov morel panhandl 1on1halloffame
p693
aVsnow mountain nat landscap switzerland bravo searchthebest themoulinroug nikond200 magicdonkey artlibr worldbest platinumphoto megashot platinumheartaward philippesaintelaudy theperfectphotograph thegoldendream great123 world100f mastersoflifegallery thegreatshoot mountainhighbisousxxx
p694
aVus snow reflect alask sunr ilov spring searchthebest matsu naturesc abw littles lovephotograph specland abigfav avid superbmasterpiec
p695
aVthanksg wint whit snow weath ilov glob montan fishey bigsky snowglob theworldthroughmyey 1on1nature
p696
aVwint snow mountain tag3 taggedout backlight contraluz spain tag2 tag1 streetlamps niev asturia sierr invierno oviedo farola aramo lamppost sierradelaramo astury uvieu 50faves explore16 ltytr2 ltytr1 superbmasterpiec beyondexcel superlativa
p697
aVcaliforn us wat anim americ sandiego perform happy train dolphin whal orc seaworld shamu killerwh themepark tail fin marinel threes seawolf blackf
p698
aVafric whit black topv111 tanzan honeymoon zebr tail topphoto
p699
aVarizon lov nat phoenix anim outdo zoo young story zebr talk exibit onemil williestark
p700
aVwint sky hous man tre bird hat barley bird anim cloud tie walk landscap fly spring stripes flight toph zebr migr vern teth top migr inhabit aer 3amfromkyoto artlibr hiem restaint ascentof28days vernala flickr:user=3amfromkyoto
p701
aVlas vega sum us whit zoo tig nevad nv 101 mir bree rar 2007 superbmasterpiec ysplix focusleg fiveflickrfav
p702
aVwhit zoo tig tijg rhen ouwehand s5600 specanim animalkingdomelit abigfav patries71 anawesomeshot impressedbeauty ourplanet diamondclassphotograph flickrdiamond
p703
aVind nat anim kodak wildl tig sandeep keral expl wildc trivandr naturesfinest thiruvananthapuram parkstock specn specanim animalkingdomelit impressedbeauty wowiekazowy flickrdiamond
p704
aVcolumbuszoo columb ohio snow anim mam zoo march tig sib 2008 amurtig outstandingshot specanim ucumar abigfav ucumariphotograph anawesomeshot impressedbeauty diamondclassphotograph
p705
aVnat cat ilov escap sony tig cybershot dream bigc scan at cre star canoneos100 way alert sonycybershot eb kiss2 1on1 dscs40 dgr thecontinu views500 2for2 kiss3 kiss1 kiss4 lovephotograph emptybel kiss5 specanim obsessiveflickrit sonycybershotdscs40 abigfav bonz
p706
aVcat d50 cub paw nikon tig sib cub philazoo cc100 specanim abigfav impressedbeauty theunforgettablepict theperfectphotograph goldwildl goldstaraward zoosofnorthameric animalkimgdomelit
p707
aVrom nat tig natur felino tigr anim carnivoro pred mammifero bioparco abigfav
p708
aVcat d50 mom nikon bravo tig daught sib am blueribbonwin philazoo specanim avisittothezoo platinumphoto anawesomeshot impressedbeauty flickrplatin megashot excellentphotographeraward theperfectphotograph goldwildl goldstaraward
p709
aVwat d50 cub cool nikon tig soe blueribbonwin changba supershot philazoo abigfav platinumphoto anawesomeshot impressedbeauty goldenphotograph diamondclassphotograph flickrdiamond brillianteyejewel theperfectphotograph goldstaraward damniwishidtakenth vosplusbellesphoto awchosenon
p710
aVsumatrantig tig tig wildc felin endangeredspecy criticallyendang pred carn fierc scary look watch star threatening dang stripes striped anim mam torontozoo angry upset frust impressedbeauty zoosofnorthameric anawesomeshot photostosmileabout parkstock naturewatch blueribbonwin specanim onblack
p711
aVbeauty anim cat canon mam fantast colorado lovely1 tig denv bigc wiley sumatrantig wildc animalplanet exoticc downtownaquar canon70200f28l canoneos30d her canonef70200mmf28lisusm
p712
aV20d canon cub tig sum naturesfinest dudleyzoo sypix specanim animalkingdomelit aplusphoto diamondclassphotograph flickrdiamond naturesbaby naturesexquisit itsazoooutth
p713
aVsf sanfrancisco californ ca us nat anim cat zoo nikon kat felin unitedst d70 nikond70 wildl tig sb600 kitty bigc gato endang sumatrantig animalplanet sfzoo sanfranciscozoo padang zoolog endangeredspecy exoticc pantheratigr pantheratigrissumatra impressedbeauty susanlpettit
p714
aVtow bravo soe klcc blueribbonwin supershot magicdonkey abigfav flickrgold anawesomeshot superbmasterpiec diamondclassphotograph flickrdiamond shutterpro
p715
aVpar frant tow vint psp tor eiffel paintshoppro ag franc blueribbonwin supershot envejecido abigfav platinotyp holidaysvacanzeurlaub superbmasterpiec travelerphoto wowiekazowy diamondclassphotograph flickrdiamond platinotip
p716
aVtravel sky tow topf25 wat topv111 architect cloud arquitectur topv333 tor venezuel olymp 100v10f bunk cielo nub margarit isl fortin fuert e330 topva atrium09 250v10f challengeyouwin abigfav shieldofexcel rubenseabr
p717
aVblu light sky tow jap night cloud digit tokyo ev ear nikon illumin tokyotow nippon 1855 nikk mit nihon earlyev tamach d40 empirik travelerphoto
p718
aVnyc newyorkc tow clock topv111 skybridg badg skyway skywalk pedway
p719
aVpar frant tow frankreich europ europ tor tour tor eiffeltow eiffel toureiffel torreeiffel finepix frankrijk turm trocadero franc parid \u30d5\u30e9\u30f3\u30b9 parig frankrik \u6b27\u6d32 \u30bf\u30ef\u30fc \u5854 \u6cd5\u570b \u6cd5\u56fd \u5df4\u9eee \u30e8\u30fc\u30ed\u30c3\u30d1 \u30d1\u30ea s6500 s6500fd abigfav platinumphoto finepixs6500 pedrocavalc
p720
aVshadow par tow keyr heart eiffeltow eiffel souvenir soe keepsak supershot abigfav anawesomeshot diamondclassphotograph temadaseman alphabetphotomino
p721
aVuk bridg england london tow towerbridg southbank rivertham digitalxpro london nesst
p722
aVblu sky par frant tow star fun amaz awesom eiffeltow samsung best technorat toureiffel stun incred mag baidu thebest masterpiec imagesgooglecom googlecom yahoocom postalcard europefl beautysecret bej flickrcolo nv7 abigfav anawesomeshot theperfectphotograph goldstaraward imagesyahoocom rubyphotograph qualitypixel llovemyp nv7opssamsung taggalaxycom
p723
aVuk bridg blu england london tow tham cloud towerbridg boat europ gherkin orhantsolak
p724
aVven ita tow dark abigfav impressedbeauty superapl aplusphoto diamondclassphotograph flickrdiamond superheart
p725
aVsky par frant tow purpl eiffel it miss aplusphoto
p726
aVmadrid topv111 train underground lafotodelaseman spain topf50 eps1 eps2 eps3 praiseandcurseofthec eps4 transport eps5 eps6 fotospep lfsmejor lfstransportes exc4 exce1 exe2shelli exce3 exce5 laeyecandy
p727
aVtopf25 train subway geotag mexico topf50 metro movimiento amarillo naranj chida b3co geo:tool=gmif 50club abigfav geo:lat=19346482 geo:lon=99180568 lugarmexicodf
p728
aVtrain swed rail canon350d hdr exp sigma1020 theperfectphotograph
p729
aVtrain germany deutschland hamburg zug bahnhof train expl railwayst hauptbahnhof deutschebahn hdr centralst colorphotoaward
p730
aVred stat night train vint de tren noch la rojo bogot lon ghost railway nobody estac wait reg soledad fantasm esper saban nady registro carriler
p731
aVlongexpos blur me train d50 mov bravo zurich crumpl 2007 gorillapod sihlc outstandingshot saalsporthal shieldofexcel impressedbeauty superapl aplusphoto slrzoom diamondclassphotograph flickrdiamond 031007 superheart
p732
aVwint bw train washington cafegallery steam mount rainy 17 bwdreams
p733
aVtrain bravo railway train steam nephew utatatrain ciar thomasthetankengin svr severnvalleyrailway abigfav funographygallery oldbutgold utata:color=black utata:project=upportfolio masaach utata:project=v3test8
p734
aVind train passeng tamilnadu ooty coono southernind clauderenault nilgirihil worldloc
p735
aVuk red england west alex stat yard spee train track cheshir britain unit gre nor fast kingdom jr virgin crew pendolino fiveflickrfav
p736
aVlongexpos fog train nightshot dri nachtaufnahm langzeitbelichtung niedersachs dynamicrangeincreas marshalingyard masch rangierbahnhof abigfav northernsaxony
p737
aVtrain photoshop graffit bravo manip hdr photomatix instantfav abigfav superapl aplusphoto goldenphotograph
p738
aVpak train railway hdr fpc singleexpos photomatixenh
p739
aVpeopl clock train tren sevill spain searchthebest gent relod soe hdr blueribbonwin musicalref outstandingshot alhambra2006 silviadeluqu abigfav superbmasterpiec trainstationsantajust
p740
aVbridg train finland riv soe justimagin platinumphoto superapl aplusphoto theunforgettablepict flickrestrella llovemyp oldelectriclocomot
p741
aVmist stat fog night train movy nacht transport vivid railway railwayst goodby publictransport soe enkhu trein afscheid openbaarvervo supershot flickrsbest diamondclassphotograph flickrdiamond bwartaward top20gray impressivebeautiesgroup
p742
aVcol stat analog train peoplescho 10faves 25faves abigfav aplusphoto
p743
aVsnow train nikon d200 platinumphoto nikkor70300vr superbmasterpiec infinestyl diamondclassphotograph photofaceoffwin colourartaward galimau86
p744
aVold sea sky mountain text window cloud train art perspect lifestyl styl atmosph nostalg alban emot avantgard sergioleon enniomorricon klauskinsk cont supershot marielito passionphotograph abigfav fotografkiraathanes colorphotoaward fotografeshqipt diamondclassphotograph independentphoto betterthangood trashbit gianmariavolont leevanc
p745
aVtravel nat train soe shiningst blueribbon musictomyey aclass peoplescho thebigon supershot a theworldthroughmyey 6faves 25faves beautifulcapt mywin supershot shieldofexcel anawesomeshot superapl aplusphoto amazingshot superbmasterpiec infinestyl flickrdiamond theothervil photosandcalend globalvillage2 lunarvil citrit heartaward voyageursdumond excapt champagnemo wetraveltheworld theperfectphotograph worldpcit
p746
aVtrain mississipp steen hdr photomatix bestofmississipp mattgarn
p747
aVblu sum sky cloud tre art nat field germany landscap corn top20travel natureoutpost goldstaraward landscapesdream
p748
aVtre green nat topf25 expl view 10000 janny 10000views topf70 sonydscw15 jannybrock 11000views explore2007 favemegroup3
p749
aVtravel sunset tre searchthebest austral expl wa outback austra kimberley bottlet aust derby baobab sic austra boab novideo naturesfinest interestingness167 i500 colorphotoaward superbmasterpiec beyondexcel treesubject diamondclassphotograph flickrdiamond gadawon larrgad larrgadiy auselit visionandimaginationcom
p750
aVtre nat cloud germany photo bravo flickr heav expl baum hdr magicdonkey batram abigfav impressedbeauty superheart
p751
aVafric tre sep bravo searchthebest keny qual savannah minim acac minim masaimar milliondoll maasaimar thesourc interestingness5 supershot magicdonkey shasham outstandingshot specland specn fivestarsgallery afr artlibr anawesomeshot superapl aplusphoto 25magicdonkeysolution infinestyl goldenphotograph wowiekazowy megashot bratanesqu blackribbonbeauty musketeer3likesthisverymuch womblekingdomelit theroadtoheav flattoppedt bestofbratanesqu alemdagqualityonlyclub
p752
aVtre night star landscap light nightshot miramont starry sanabr peleng8mmf35fisheye
p753
aVtre wint sep turkey interest istanb expl shahriarerf chancherino
p754
aVtre light topc25 denmark wood forrest rightplacerighttim gribskov outstandingshot naturesgallery abigfav outstandingshot superapl aplusphoto momse2600 diamondclassphotograph flickrdiamond flickrelit
p755
aVblu tre sky green portug nat col landscap alentejo sobreiro bratanesqu
p756
aVtre light holland leav spring taco populusalb witteabeel annabo europeanwhitepopl may6200641interestingness fcpat
p757
aVtre green yellow photoshop bravo searchthebest interestingness1 ent jrrtolkien treebeard 4real treefarm thetwotow thelordofth beautifulear bitofm hartington magicdonkey outstandingshot mywin anawesomeshot magicdonkey25 creativet flcikrplatinum treesubject flickr4 nikoncoolpixp5000 congratsonexpl womblekingdomelit bungoball northeasternnebrask entsonmanouvr magicbroccoliforest ithinkitsabouttimeforsomemorewkem flickrturns4
p758
aVmorn tre spain expl row caminhodesantiago eucalypt caminodesantiago reforest naturesfinest stjamesway impressedbeauty flickrplatin ireneschmidt
p759
aVblu topf25 beauty topv111 1025fav 510fav wow cool interest topf50 topv555 topv333 underw dominicanrepubl topv1111 topv999 fv5 loveit pi whal topv777 whal d200 thumbsup humpback topv3333 60 onblu lurk peoplescho topc150 helluv snorkel fivestarsgallery 3waychallenge 3wc tvx 3w5 platinumphoto impressedbeauty silverbank top20blue world100f 3wayassignment67
p760
aVtopf25 beauty topv111 1025fav 510fav wow topv555 topv333 underw dominicanrepubl topv1111 topv999 fv5 pi wildanim topv777 whal d200 humpback animalplanet 60 zoolog aquatic helluv 1000v40f specn pfo fivestarsgallery animalkingdomelit 3waychallenge 3wc tvx 3w5 impressedbeauty silverbank photofaceoffwin bfgreatesthits
p761
aVblu topf25 wat beauty topv111 1025fav 510fav wow ilov topv555 topv333 underw dominicanrepubl topv1111 fv5 pi 1224mmf4g whal topv777 whal d200 humpback animalplanet humpbackwh fa aquatic parkstock 1000v40f specanim pfo animalkingdomelit 3waychallenge 3wc tvx abigfav 3w5 diamondclassphotograph flickrdiamond silverbank photofaceoffwin
p762
aVstreet dog feet walk sho cross cross candid milano naturallight smok ph dicembr zar canonefs1022mmf3545usm wof corsobuenosayr shotbart thishasbeenexpl digitalvignet squareddog faccioleprovegeneraliperladian interestingness158when20071201 gianlucafabrizio
p763
aVcaliforn sandiego believ kil whal whal orc hightech seaworld orkid endangeredspecy orcin
p764
aVwhal humpbackwh endangeredspecy marinemam ar1 abigfav
p765
aVaz whal dolphin baleia golfinho underw sea oc spermwh marinemam marinel seamam vidamarinh portug
p766
aVvancouverisland kpod whal whal orc killerwh marinemam victoriabc killerwh whalewatch marinemam jpod princeofwh lpod superpod killerwhalepict killerwhaleim wowiekazowy oceanwildl aug232007 oceanmas rozariostraight orcaphotograph orcapict whalepictureswhalephotograph
p767
aVsurf dolphin whal orca kelp
p768
aVoc travel sea us nat wat hawai island coast whal whal humpback mcshots breach hawaiianisland
p769
aVcanad anim topv111 vancouv aquar 2000 britishcolumb august favourit whal vancouveraquar orca killerwh 20000810 specanim animalkingdomelit
p770
aVcanad newfoundland labrad whal orc orca pavel battleharbo trebukov pntphoto
p771
aVoc wat wav whal humpback splash flip orca killerwh breach
p772
aVwhal bal capeverd capoverd megatter
p773
aVme newengland ne whal whal humpback humpback atlanticoc humpbackwh humpbackwh southernmain tncocean07 20070702d20085642 jss20081
p774
aVwhal
p775
aVwildl austral whal southernrightwh wildlifeofaustral
p776
aVcanad whal whalewatch stlawrenceriver youaremywin
p777
aVcapecod g2 whal naturescal treeofhonor2 joelmarionfineart joelm
p778
aVpod print southern kil l whal orc breach resid orcin
p779
aValask whal humpback killerwh
p780
aVpink blu window topf25 az brasil paraty cas interest topf50 ros ccarricond cristinacarricond ar janel topf100 parati jaquet quilombodocampinho tolha casadecolorir
p781
aVcol portug window ventan bravo lisbo soe alfam 2007 blueribbonwin supershot abigfav anawesomeshot superapl aplusphoto ltytr2 ltytr1 holidaysvacanzeurlaub travelerphoto diamondclassphotograph flickrdiamond pacoct
p782
aVwindow mexico ventan interest colo col veracruz thewal xalap ilmuro i500 chuchogm abigfav sonydslra100 ultimateshot wowiekazowy amazingam highestposition20onsundayapril152007
p783
aVafric portrait peopl window smil kid childr top20childportrait qual sud top20hallfame smil
p784
aVblu col colo window az mexico ventan interest puebl babel photooftheday i500 outstandingshot sonycybershotdscr1 chuchogm 3oriente abigfav bonz tiempoiberoamericano superapl aplusphoto explore6ene07 10jan2007 200750plusfaves
p785
aVblu newmexico southwest flow hom window topf25 topf50 topv555 topv333 topf75 clos topv1111 bord topv999 adob shut 50100fav topv777 set zip87557 ybp popolo10 dontgiveapopolo2 votedpopolobythepopoloposs
p786
aVlight window girl worn fad past goldenphotograph aarchibald mightdeleteitl oldphotonewedit notmyfavouritephotobutitstimetopostit
p787
aVind 100v10fv window jaip itsongselection1 mirrorsofsocy itsong\u2013mirrors\u2013asia itsong\u2013nikond70 topv111 indianarch topf25 topv333
p788
aVleic blu window top20favorites 50mm afternoon rainyday bokeh f10 noctilux dailyl kodake100vs m7 leicanoctilux50mmf10
p789
aVwom window bravo searchthebest curtain x gatineau magicdonkey yveslorson magicdonkey25 flickrplatin infinestyl christianemichaud thegoldenmermaid sensualevoc
p790
aVcortin window ventan rej spain nikon bravo searchthebest col albero magicdonkey outstandingshot nikond80 superapl aplusphoto superheart
p791
aVwindow ventan interest nikon bravo qual expl gibralt blueribbonwin magicdonkey outstandingshot superapl aplusphoto superbmasterpiec diamondclassphotograph superheart ultrashot ultrashotultraaward
p792
aVwood blu red verd green window col yellow az ventan lumix rojo mader buenosair searchthebest col amarillo shut laboc persiana caminito felumolin 30879 fineartphoto superapl aplusphoto miargentin myargentin felicitasmolin
p793
aVportug window bravo castro soe breathtak laboreiro blueribbonwin supershot magicdonkey abigfav shieldofexcel anawesomeshot colorphotoaward superapl aplusphoto diamondclassphotograph flickrdiamond blackribbonbeauty tribesandhy
p794
aVlight shadow black window sep squ indo row 1735mmf28d housetop nikond200 10faves flickrsbest nikkor1735mmf28 artlibr impressedbeauty diamondclassphotograph flickrdiamond superheart blackribbonbeauty tribesandhy ysplix
p795
aVita sun window cat bravo chat gato gatto friul themoulinroug cormon magicdonkey abigfav bestofc anawesomeshot impressedbeauty mieiocch hourofthediamondlight colourartaward goldenwin explore22jul2007
p796
aVdeleteme5 deleteme8 arizon still deletem deleteme2 deleteme3 deleteme4 deleteme6 deleteme9 deleteme7 window lamp yellow canon silv stil savem tucson saveme2 saveme3 deleteme10 august 2006 minim lamppost minim g3 canong3 minim dwm interestingness290 i500 abigfav
p797
aVblu portrait selfportrait me window az movy ventan gent yo col cle kiddo beatrix autorretrato eduardo hombr killbil escob quentintarantino mred beatrixkiddo nom capt favorites50 views1250 i s3i artlibr inspiredbymovy showdownatthehouseofblueleav
p798
aVportrait window anim cat ventan spain nikon gato d200 supershot mywin abigfav impressedbeauty
p799
aV2002 red window ventan spain rojo bravo searchthebest cataluny soe 2007 arty vald supershot magicdonkey abigfav shieldofexcel anawesomeshot impressedbeauty superapl aplusphoto ltytr1 travelerphoto goldenphotograph diamondclassphotograph pacoct restaurantcandelar
p800
aVblu window yellow sho nikon bravo colo vivid minim minim d80 flickrsbest platinumphoto colorphotoaward ultimateshot diamondclassphotograph rabatal colourartaward theperfectphotograph ostrellin
p801
aVnewyorkc blackandwhit bw sunlight newyork reflect window nikon solitud manhat trix streetphotography metropol gotham metl tot 23rdstreet thebigappl artlibr
p802
aVpoverty blu red flow window col childr ventan hop educ sold granad postcard nicaragu blueandr kathyaadam
p803
aVtravel light vac ita orang window tabl hp chair europ europ ital view ligur ombr finestr genov porto vist color tavolo sed soe arancio luc it voc portoantico supershot nikonstunninggallery platinumphoto
p804
aVautumn leaf window autumncol wow
p805
aVtrip travel vias ven vac ita art window nat gard subway ventan ital 2006 finestr ag git venez coolest vacac viaggio blueribbonwin envejecido villeggiatur invecchiato abigfav anawesomeshot olympusd535z thepyp
p806
aVblu window colo az lafotodelaseman spain bravo ventana rel navarr milesdav sketchesofspain 1in10f600v 1in10f700v i500 flickrsbest 1in10f800v urbandetail interestingness004 lfs102006 caparroso aplusphoto
p807
aVwindow portug streetlamp lisbo lisbon janel topphoto 30faves30comments300views aplusphoto diamondclassphotograph allin1 goldstaraward
p808
aVstreet travel vias blu window red orang col colo verd green 20d col yellow az composit canon cal spain rojo edificio colo facad col ventana amarillo balcony casa naranj fachad cuenc fenet balcon compos fachada dgr
p809
aVwindow southameric topf25 argentin ventan buenosair bueno air laboc colo minim 1111v11f abigfav colourartaward
p810
aVwindow frant taggedout cotedaz menton frenchrivier squarephoto 500x500 blueribbonwin supershot abigfav supershot ritacr goldenphotograph oldfishingvil friendlywelcom colorsofthemediter villagewindow ritacranephotograph wwwritacranestudiocom
p811
aVholg window bw blackandwhit chicago panoram empty lightleak
p812
aVblu window bw topf25 az photoshop cutout lafotodelaseman ventan spain topv333 searchthebest blu gut almostbw bleu ventana galic galiz eps1 eps2 forsakenth lookatm eps3 viejo eps4 top20windows vigo eps5 eps6 lfscreatividad lfsviejo 100vistas gtaggroup goddaym1
p813
aVwindow build art architect modern design artwork mit gehry stat unr frankgehry statac gerhy ishron 250v10f aia150
p814
aVwindow vermelho saopedro gloomyheart
p815
aVsardegn blu window blu azzurro bos finest oristano sacost fiammetta53
p816
aVwindow green col catchycol col greenisbeauty text wal vividcol bigmomm challengeyouwin impressedbeauty photofaceoffwin
p817
aVmadrid deleteme5 window deleteme8 deletem deleteme2 deleteme3 deleteme4 deleteme6 deleteme9 deleteme7 window spain savem saveme2 deleteme10 expl finestr vot vetro finest fav10 criticheit view500
p818
aVhous window frant col landscap nikon blueribbonwin thueyt harfang nikkor18200vr onlyyourbestshot diamondclassphotograph duelwin patricknosetto
p819
aVwindow red roug rosso finest challengeyouwin cantonh nespyxel stefanoscarsell
p820
aVman mal wat night photoshop zoo bar drink stripes sur zebr sur liquid blend digitalcol digitalmont myflickr franklinparkzoo 3photos camouphl zebrarid
p821
aVnat anim zoo wildl sydney austral nsw zebr feelsgood flickrsbest torangazoo abigfav canon400d anawesomeshot isawyoufirst
p822
aVpark bal whit black nat anim faun photoshop indones lumix zoo panoram panason zebr soe oob cs3 giany tropical outofbound golddragon abigfav photoshopcs3 diamondclassphotograph flickrdiamond fz8 dmcfz8 panasoniclumixdmcfz8 excellentphotographeraward theperfectphotograph goldstaraward dragongold beautifulbal balisafarypark
p823
aVfab nat zoo singap photograph oneofakind zebr excel shield award soe watch excel naturesfinest blueribbonwin supershot singaporeflickrmeetup specanim of anawesomeshot impressedbeauty aplusphoto ultimateshot amazingshot wowiekazowy coolestphotograph wonderfulworldmix betterthangood
p824
aVd50 nikon zebr sens soe galop blueribbonwin supershot philazoo golddragon avisittothezoo platinumphoto anawesomeshot impressedbeauty ultimateshot diamondclassphotograph flickrdiamond theunforgettablepict itsazoooutth damniwishidtakenth vosplusbellesphoto
p825
aVsearch best zebr naturesfinest whatawonderfulworld blueribbonwin supershot justlov creativephoto animalkingdomelit mywin abigfav supershot aplusphoto wowiekazowy ysplix empyreananim prefectphotograph
p826
aVsum nat anim zoo interest stripes july expl zebr ceeceedotc 2007 naturesfinest greatervancouverzoo superheart
p827
aVafric travel anim keny wildl mar zebr afrik ken masa afr tup masaimar gamedr blueribbonwin specanim theexhibit theunforgettablepict theunforgettablepict africamyafric tup2 manonvanderlit
p828
aVzebr 35faves 25faves specanim impressedbeauty superbmasterpiec diamondclassphotograph eliteim rickspixtop50
p829
aVsouthafric mam wildl zebr krug naturesfinest 10faves animaladdict 25faves specanim anawesomeshot aplusphoto coyoto naturewatch
p830
aVvivid zebr burgerszoo naturesfinest thecontinu 123nederland diamondclassphotograph lmaoanimalphotoaward
p831
aVanim random expl zebr apl golddragon aplusphoto diamondclassphotograph flickrdiamond ysplix theunforgettablepict proudshop goldstaraward qualitypixel oshot magicdonkeysbest omarquimson
p832
aVbaby 20d nat canon zoo rotterdam blijdorp bravo searchthebest expl newborn zebr foal naturesfinest pgphotography parkstock edgarthiss 21010 flickrsbest specanim anawesomeshot goldenphotograph
p833
aVafric nat anim southafric wildl safar zebr krugernationalpark gamereserv naturesfinest blueribbonwin golddragon impressedbeauty aplusphoto superbmasterpiec wowiekazowy ruslou onlythebest naturewatch theperfectphotograph
p834
aVlongexpos blackandwhit bw brown film anim analog dark polaroid toy holg lomo toycamer indo zebr inst holgaroid choco zebra viewfind toyanim polaroidback chocolatefilm choco80 chocolate80 polaroidtoyanim polaroidanim
p835
aVbaby 20d nat canon zoo rotterdam blijdorp expl newborn zebr foal naturesfinest pgphotography supershot edgarthiss 21066 specanim animalkingdomelit specanimalphotooftheday impressedbeauty ultimateshot
p836
aVhors baby nat anim mam fly jump fre yo ii mind zebr skid foal equida supershot specanim abigfav anawesomeshot impressedbeauty adorablecrit thrumyeye babyanimalbabyanim
p837
aVwild cut nat southafric bravo searchthebest stripes wildl zebr tal f90x naturesfinest specanim animalkingdomelit specanimalphotooftheday platinumphoto irresistiblebeauty diamondclassphotograph flickrdiamond specanimalphotoofthemon frhwofavs natureoutpost bfgreatesthits theperfectphotograph goldwildl llovemyp
p838
aVsouthafric bravo wildl expl zebr africanwildl marlothpark specanim animalkingdomelit zebrafight impressedbeauty
p839
aVanim expl zebr thumbsup photographicart mam supershot impressedbeauty superheart empyreananim eliteim
p840
aVvienn wien autumn bw anim anim canon eo austr blackwhit 2006 azem zebr tiergart schonbrunn specanim abigfav
p841
aVanim zoo stripes zebr tier wilhelm impressedbeauty superapl aplusphoto
p842
aVzebr wildl afric
p843
aVzebr namib etosh
p844
aVafric canon keny safar zebr masaimar flickrsbest jalalspagesanimalkingdomalb
p845
aVbw whit black ear zebr beyaz edinburghzoo hayv barebackrid siyah flickrsbest anawesomeshot superbmasterpiec
p846
aVafric wild sum vac holiday nat grass anim tanzan mam outdo fight pattern stripes wildl olymp safar abroad zebr duel fight ngorongorocr e510 10faves adoublefav goldwildl goldenpalmaward
p847
aVlight topf25 southafric zebr afrik zebra zebr supershot gardawind
p848
aVafric lov nat anim anim hug hug keny zebr masaimar neck specanim animalkingdomelit
p849
a.(dp1
S'0087_2173846805.jpg'
p2
L1878L
sS'0253_421644823.jpg'
p3
L7204L
sS'0203_2728621254.jpg'
p4
L3163L
sS'0318_348656391.jpg'
p5
L2080L
sS'0018_298719078.jpg'
p6
L1387L
sS'0212_2322966658.jpg'
p7
L11885L
sS'0397_285794391.jpg'
p8
L1726L
sS'0565_1005028523.jpg'
p9
L5685L
sS'0269_206328979.jpg'
p10
L2935L
sS'0081_1209875945.jpg'
p11
L164L
sS'0084_337467134.jpg'
p12
L588L
sS'0092_2019123562.jpg'
p13
L1525L
sS'0328_241052832.jpg'
p14
L738L
sS'0574_1350863031.jpg'
p15
L6005L
sS'0079_2041541286.jpg'
p16
L11589L
sS'0412_1596156259.jpg'
p17
L11442L
sS'0344_19537427.jpg'
p18
L8263L
sS'0276_2730274288.jpg'
p19
L7664L
sS'0419_2046362011.jpg'
p20
L9450L
sS'0288_364812236.jpg'
p21
L10040L
sS'0052_449204753.jpg'
p22
L7852L
sS'0211_236747497.jpg'
p23
L5325L
sS'0342_354469192.jpg'
p24
L7348L
sS'0251_244246577.jpg'
p25
L9332L
sS'0271_189112619.jpg'
p26
L10483L
sS'0387_2674420581.jpg'
p27
L6625L
sS'0031_119397831.jpg'
p28
L10210L
sS'0226_129143370.jpg'
p29
L6121L
sS'0223_34030539.jpg'
p30
L10365L
sS'0558_126778063.jpg'
p31
L2820L
sS'0338_133892086.jpg'
p32
L2398L
sS'0573_375860787.jpg'
p33
L8435L
sS'0228_118973341.jpg'
p34
L6430L
sS'0297_1351797267.jpg'
p35
L3569L
sS'0243_1475908697.jpg'
p36
L6556L
sS'0225_382911126.jpg'
p37
L5136L
sS'0285_293461351.jpg'
p38
L11259L
sS'0032_2686412857.jpg'
p39
L4228L
sS'0438_148638038.jpg'
p40
L3874L
sS'0525_299997219.jpg'
p41
L4093L
sS'0120_1750587688.jpg'
p42
L3394L
sS'0014_359077168.jpg'
p43
L10592L
sS'0274_2166843026.jpg'
p44
L9801L
sS'0321_2303335368.jpg'
p45
L3039L
sS'0595_465845678.jpg'
p46
L8557L
sS'0255_521307759.jpg'
p47
L8875L
sS'0343_1212317787.jpg'
p48
I0
sS'0018_375723120.jpg'
p49
L4563L
sS'0100_1849197720.jpg'
p50
L10744L
sS'0012_2397695651.jpg'
p51
L4805L
s.